
bombup.elf:     file format elf32-littlearm

Sections:
Idx Name          Size      VMA       LMA       File off  Algn
  0 .isr_vector   000000c0  08000000  08000000  00010000  2**0
                  CONTENTS, ALLOC, LOAD, READONLY, DATA
  1 .text         00001268  080000c0  080000c0  000100c0  2**2
                  CONTENTS, ALLOC, LOAD, READONLY, CODE
  2 .rodata       00000030  08001328  08001328  00011328  2**2
                  CONTENTS, ALLOC, LOAD, READONLY, DATA
  3 .ARM.extab    00000000  08001358  08001358  0002000c  2**0
                  CONTENTS
  4 .ARM          00000000  08001358  08001358  0002000c  2**0
                  CONTENTS
  5 .preinit_array 00000000  08001358  08001358  0002000c  2**0
                  CONTENTS, ALLOC, LOAD, DATA
  6 .init_array   00000004  08001358  08001358  00011358  2**2
                  CONTENTS, ALLOC, LOAD, DATA
  7 .fini_array   00000004  0800135c  0800135c  0001135c  2**2
                  CONTENTS, ALLOC, LOAD, DATA
  8 .data         0000000c  20000000  08001360  00020000  2**2
                  CONTENTS, ALLOC, LOAD, DATA
  9 .bss          00000020  2000000c  0800136c  0002000c  2**2
                  ALLOC
 10 ._user_heap_stack 00000604  2000002c  0800136c  0002002c  2**0
                  ALLOC
 11 .ARM.attributes 00000028  00000000  00000000  0002000c  2**0
                  CONTENTS, READONLY
 12 .debug_info   00002875  00000000  00000000  00020034  2**0
                  CONTENTS, READONLY, DEBUGGING
 13 .debug_abbrev 00000cc7  00000000  00000000  000228a9  2**0
                  CONTENTS, READONLY, DEBUGGING
 14 .debug_aranges 00000350  00000000  00000000  00023570  2**3
                  CONTENTS, READONLY, DEBUGGING
 15 .debug_ranges 000002c8  00000000  00000000  000238c0  2**3
                  CONTENTS, READONLY, DEBUGGING
 16 .debug_macro  0000badb  00000000  00000000  00023b88  2**0
                  CONTENTS, READONLY, DEBUGGING
 17 .debug_line   00003a7a  00000000  00000000  0002f663  2**0
                  CONTENTS, READONLY, DEBUGGING
 18 .debug_str    0003c869  00000000  00000000  000330dd  2**0
                  CONTENTS, READONLY, DEBUGGING
 19 .comment      0000007b  00000000  00000000  0006f946  2**0
                  CONTENTS, READONLY
 20 .debug_frame  000009f8  00000000  00000000  0006f9c4  2**2
                  CONTENTS, READONLY, DEBUGGING

Disassembly of section .text:

080000c0 <__do_global_dtors_aux>:
 80000c0:	b510      	push	{r4, lr}
 80000c2:	4c06      	ldr	r4, [pc, #24]	; (80000dc <__do_global_dtors_aux+0x1c>)
 80000c4:	7823      	ldrb	r3, [r4, #0]
 80000c6:	2b00      	cmp	r3, #0
 80000c8:	d107      	bne.n	80000da <__do_global_dtors_aux+0x1a>
 80000ca:	4b05      	ldr	r3, [pc, #20]	; (80000e0 <__do_global_dtors_aux+0x20>)
 80000cc:	2b00      	cmp	r3, #0
 80000ce:	d002      	beq.n	80000d6 <__do_global_dtors_aux+0x16>
 80000d0:	4804      	ldr	r0, [pc, #16]	; (80000e4 <__do_global_dtors_aux+0x24>)
 80000d2:	e000      	b.n	80000d6 <__do_global_dtors_aux+0x16>
 80000d4:	bf00      	nop
 80000d6:	2301      	movs	r3, #1
 80000d8:	7023      	strb	r3, [r4, #0]
 80000da:	bd10      	pop	{r4, pc}
 80000dc:	2000000c 	.word	0x2000000c
 80000e0:	00000000 	.word	0x00000000
 80000e4:	08001310 	.word	0x08001310

080000e8 <frame_dummy>:
 80000e8:	4b04      	ldr	r3, [pc, #16]	; (80000fc <frame_dummy+0x14>)
 80000ea:	b510      	push	{r4, lr}
 80000ec:	2b00      	cmp	r3, #0
 80000ee:	d003      	beq.n	80000f8 <frame_dummy+0x10>
 80000f0:	4903      	ldr	r1, [pc, #12]	; (8000100 <frame_dummy+0x18>)
 80000f2:	4804      	ldr	r0, [pc, #16]	; (8000104 <frame_dummy+0x1c>)
 80000f4:	e000      	b.n	80000f8 <frame_dummy+0x10>
 80000f6:	bf00      	nop
 80000f8:	bd10      	pop	{r4, pc}
 80000fa:	46c0      	nop			; (mov r8, r8)
 80000fc:	00000000 	.word	0x00000000
 8000100:	20000010 	.word	0x20000010
 8000104:	08001310 	.word	0x08001310

08000108 <__udivsi3>:
 8000108:	2200      	movs	r2, #0
 800010a:	0843      	lsrs	r3, r0, #1
 800010c:	428b      	cmp	r3, r1
 800010e:	d374      	bcc.n	80001fa <__udivsi3+0xf2>
 8000110:	0903      	lsrs	r3, r0, #4
 8000112:	428b      	cmp	r3, r1
 8000114:	d35f      	bcc.n	80001d6 <__udivsi3+0xce>
 8000116:	0a03      	lsrs	r3, r0, #8
 8000118:	428b      	cmp	r3, r1
 800011a:	d344      	bcc.n	80001a6 <__udivsi3+0x9e>
 800011c:	0b03      	lsrs	r3, r0, #12
 800011e:	428b      	cmp	r3, r1
 8000120:	d328      	bcc.n	8000174 <__udivsi3+0x6c>
 8000122:	0c03      	lsrs	r3, r0, #16
 8000124:	428b      	cmp	r3, r1
 8000126:	d30d      	bcc.n	8000144 <__udivsi3+0x3c>
 8000128:	22ff      	movs	r2, #255	; 0xff
 800012a:	0209      	lsls	r1, r1, #8
 800012c:	ba12      	rev	r2, r2
 800012e:	0c03      	lsrs	r3, r0, #16
 8000130:	428b      	cmp	r3, r1
 8000132:	d302      	bcc.n	800013a <__udivsi3+0x32>
 8000134:	1212      	asrs	r2, r2, #8
 8000136:	0209      	lsls	r1, r1, #8
 8000138:	d065      	beq.n	8000206 <__udivsi3+0xfe>
 800013a:	0b03      	lsrs	r3, r0, #12
 800013c:	428b      	cmp	r3, r1
 800013e:	d319      	bcc.n	8000174 <__udivsi3+0x6c>
 8000140:	e000      	b.n	8000144 <__udivsi3+0x3c>
 8000142:	0a09      	lsrs	r1, r1, #8
 8000144:	0bc3      	lsrs	r3, r0, #15
 8000146:	428b      	cmp	r3, r1
 8000148:	d301      	bcc.n	800014e <__udivsi3+0x46>
 800014a:	03cb      	lsls	r3, r1, #15
 800014c:	1ac0      	subs	r0, r0, r3
 800014e:	4152      	adcs	r2, r2
 8000150:	0b83      	lsrs	r3, r0, #14
 8000152:	428b      	cmp	r3, r1
 8000154:	d301      	bcc.n	800015a <__udivsi3+0x52>
 8000156:	038b      	lsls	r3, r1, #14
 8000158:	1ac0      	subs	r0, r0, r3
 800015a:	4152      	adcs	r2, r2
 800015c:	0b43      	lsrs	r3, r0, #13
 800015e:	428b      	cmp	r3, r1
 8000160:	d301      	bcc.n	8000166 <__udivsi3+0x5e>
 8000162:	034b      	lsls	r3, r1, #13
 8000164:	1ac0      	subs	r0, r0, r3
 8000166:	4152      	adcs	r2, r2
 8000168:	0b03      	lsrs	r3, r0, #12
 800016a:	428b      	cmp	r3, r1
 800016c:	d301      	bcc.n	8000172 <__udivsi3+0x6a>
 800016e:	030b      	lsls	r3, r1, #12
 8000170:	1ac0      	subs	r0, r0, r3
 8000172:	4152      	adcs	r2, r2
 8000174:	0ac3      	lsrs	r3, r0, #11
 8000176:	428b      	cmp	r3, r1
 8000178:	d301      	bcc.n	800017e <__udivsi3+0x76>
 800017a:	02cb      	lsls	r3, r1, #11
 800017c:	1ac0      	subs	r0, r0, r3
 800017e:	4152      	adcs	r2, r2
 8000180:	0a83      	lsrs	r3, r0, #10
 8000182:	428b      	cmp	r3, r1
 8000184:	d301      	bcc.n	800018a <__udivsi3+0x82>
 8000186:	028b      	lsls	r3, r1, #10
 8000188:	1ac0      	subs	r0, r0, r3
 800018a:	4152      	adcs	r2, r2
 800018c:	0a43      	lsrs	r3, r0, #9
 800018e:	428b      	cmp	r3, r1
 8000190:	d301      	bcc.n	8000196 <__udivsi3+0x8e>
 8000192:	024b      	lsls	r3, r1, #9
 8000194:	1ac0      	subs	r0, r0, r3
 8000196:	4152      	adcs	r2, r2
 8000198:	0a03      	lsrs	r3, r0, #8
 800019a:	428b      	cmp	r3, r1
 800019c:	d301      	bcc.n	80001a2 <__udivsi3+0x9a>
 800019e:	020b      	lsls	r3, r1, #8
 80001a0:	1ac0      	subs	r0, r0, r3
 80001a2:	4152      	adcs	r2, r2
 80001a4:	d2cd      	bcs.n	8000142 <__udivsi3+0x3a>
 80001a6:	09c3      	lsrs	r3, r0, #7
 80001a8:	428b      	cmp	r3, r1
 80001aa:	d301      	bcc.n	80001b0 <__udivsi3+0xa8>
 80001ac:	01cb      	lsls	r3, r1, #7
 80001ae:	1ac0      	subs	r0, r0, r3
 80001b0:	4152      	adcs	r2, r2
 80001b2:	0983      	lsrs	r3, r0, #6
 80001b4:	428b      	cmp	r3, r1
 80001b6:	d301      	bcc.n	80001bc <__udivsi3+0xb4>
 80001b8:	018b      	lsls	r3, r1, #6
 80001ba:	1ac0      	subs	r0, r0, r3
 80001bc:	4152      	adcs	r2, r2
 80001be:	0943      	lsrs	r3, r0, #5
 80001c0:	428b      	cmp	r3, r1
 80001c2:	d301      	bcc.n	80001c8 <__udivsi3+0xc0>
 80001c4:	014b      	lsls	r3, r1, #5
 80001c6:	1ac0      	subs	r0, r0, r3
 80001c8:	4152      	adcs	r2, r2
 80001ca:	0903      	lsrs	r3, r0, #4
 80001cc:	428b      	cmp	r3, r1
 80001ce:	d301      	bcc.n	80001d4 <__udivsi3+0xcc>
 80001d0:	010b      	lsls	r3, r1, #4
 80001d2:	1ac0      	subs	r0, r0, r3
 80001d4:	4152      	adcs	r2, r2
 80001d6:	08c3      	lsrs	r3, r0, #3
 80001d8:	428b      	cmp	r3, r1
 80001da:	d301      	bcc.n	80001e0 <__udivsi3+0xd8>
 80001dc:	00cb      	lsls	r3, r1, #3
 80001de:	1ac0      	subs	r0, r0, r3
 80001e0:	4152      	adcs	r2, r2
 80001e2:	0883      	lsrs	r3, r0, #2
 80001e4:	428b      	cmp	r3, r1
 80001e6:	d301      	bcc.n	80001ec <__udivsi3+0xe4>
 80001e8:	008b      	lsls	r3, r1, #2
 80001ea:	1ac0      	subs	r0, r0, r3
 80001ec:	4152      	adcs	r2, r2
 80001ee:	0843      	lsrs	r3, r0, #1
 80001f0:	428b      	cmp	r3, r1
 80001f2:	d301      	bcc.n	80001f8 <__udivsi3+0xf0>
 80001f4:	004b      	lsls	r3, r1, #1
 80001f6:	1ac0      	subs	r0, r0, r3
 80001f8:	4152      	adcs	r2, r2
 80001fa:	1a41      	subs	r1, r0, r1
 80001fc:	d200      	bcs.n	8000200 <__udivsi3+0xf8>
 80001fe:	4601      	mov	r1, r0
 8000200:	4152      	adcs	r2, r2
 8000202:	4610      	mov	r0, r2
 8000204:	4770      	bx	lr
 8000206:	e7ff      	b.n	8000208 <__udivsi3+0x100>
 8000208:	b501      	push	{r0, lr}
 800020a:	2000      	movs	r0, #0
 800020c:	f000 f806 	bl	800021c <__aeabi_idiv0>
 8000210:	bd02      	pop	{r1, pc}
 8000212:	46c0      	nop			; (mov r8, r8)

08000214 <__aeabi_uidivmod>:
 8000214:	2900      	cmp	r1, #0
 8000216:	d0f7      	beq.n	8000208 <__udivsi3+0x100>
 8000218:	e776      	b.n	8000108 <__udivsi3>
 800021a:	4770      	bx	lr

0800021c <__aeabi_idiv0>:
 800021c:	4770      	bx	lr
 800021e:	46c0      	nop			; (mov r8, r8)

08000220 <main>:
/**
  * @brief  The application entry point.
  * @retval int
  */
int main(void)
{
 8000220:	b580      	push	{r7, lr}
 8000222:	af00      	add	r7, sp, #0
  

  /* MCU Configuration--------------------------------------------------------*/

  /* Reset of all peripherals, Initializes the Flash interface and the Systick. */
  HAL_Init();
 8000224:	f000 f938 	bl	8000498 <HAL_Init>
  /* USER CODE BEGIN Init */

  /* USER CODE END Init */

  /* Configure the system clock */
  SystemClock_Config();
 8000228:	f000 f822 	bl	8000270 <_Z18SystemClock_Configv>
  /* USER CODE BEGIN SysInit */

  /* USER CODE END SysInit */

  /* Initialize all configured peripherals */
  MX_GPIO_Init();
 800022c:	f000 f868 	bl	8000300 <_ZL12MX_GPIO_Initv>
  /* Infinite loop */
  /* USER CODE BEGIN WHILE */
  while (1)
  {
    /* USER CODE END WHILE */
	  if (HAL_GPIO_ReadPin(GPIOC, GPIO_PIN_13) == GPIO_PIN_SET)
 8000230:	2380      	movs	r3, #128	; 0x80
 8000232:	019b      	lsls	r3, r3, #6
 8000234:	4a0d      	ldr	r2, [pc, #52]	; (800026c <main+0x4c>)
 8000236:	0019      	movs	r1, r3
 8000238:	0010      	movs	r0, r2
 800023a:	f000 fbb5 	bl	80009a8 <HAL_GPIO_ReadPin>
 800023e:	0003      	movs	r3, r0
 8000240:	3b01      	subs	r3, #1
 8000242:	425a      	negs	r2, r3
 8000244:	4153      	adcs	r3, r2
 8000246:	b2db      	uxtb	r3, r3
 8000248:	2b00      	cmp	r3, #0
 800024a:	d007      	beq.n	800025c <main+0x3c>
	  {
		  HAL_GPIO_WritePin(GPIOA, GPIO_PIN_5, GPIO_PIN_SET);
 800024c:	2390      	movs	r3, #144	; 0x90
 800024e:	05db      	lsls	r3, r3, #23
 8000250:	2201      	movs	r2, #1
 8000252:	2120      	movs	r1, #32
 8000254:	0018      	movs	r0, r3
 8000256:	f000 fbc4 	bl	80009e2 <HAL_GPIO_WritePin>
 800025a:	e7e9      	b.n	8000230 <main+0x10>
	  }
	  else
	  {
		  HAL_GPIO_WritePin(GPIOA, GPIO_PIN_5, GPIO_PIN_RESET);
 800025c:	2390      	movs	r3, #144	; 0x90
 800025e:	05db      	lsls	r3, r3, #23
 8000260:	2200      	movs	r2, #0
 8000262:	2120      	movs	r1, #32
 8000264:	0018      	movs	r0, r3
 8000266:	f000 fbbc 	bl	80009e2 <HAL_GPIO_WritePin>
	  if (HAL_GPIO_ReadPin(GPIOC, GPIO_PIN_13) == GPIO_PIN_SET)
 800026a:	e7e1      	b.n	8000230 <main+0x10>
 800026c:	48000800 	.word	0x48000800

08000270 <_Z18SystemClock_Configv>:
/**
  * @brief System Clock Configuration
  * @retval None
  */
void SystemClock_Config(void)
{
 8000270:	b590      	push	{r4, r7, lr}
 8000272:	b091      	sub	sp, #68	; 0x44
 8000274:	af00      	add	r7, sp, #0
  RCC_OscInitTypeDef RCC_OscInitStruct = {0};
 8000276:	2410      	movs	r4, #16
 8000278:	193b      	adds	r3, r7, r4
 800027a:	0018      	movs	r0, r3
 800027c:	2330      	movs	r3, #48	; 0x30
 800027e:	001a      	movs	r2, r3
 8000280:	2100      	movs	r1, #0
 8000282:	f001 f83d 	bl	8001300 <memset>
  RCC_ClkInitTypeDef RCC_ClkInitStruct = {0};
 8000286:	003b      	movs	r3, r7
 8000288:	0018      	movs	r0, r3
 800028a:	2310      	movs	r3, #16
 800028c:	001a      	movs	r2, r3
 800028e:	2100      	movs	r1, #0
 8000290:	f001 f836 	bl	8001300 <memset>

  /** Initializes the CPU, AHB and APB busses clocks 
  */
  RCC_OscInitStruct.OscillatorType = RCC_OSCILLATORTYPE_HSI;
 8000294:	0021      	movs	r1, r4
 8000296:	187b      	adds	r3, r7, r1
 8000298:	2202      	movs	r2, #2
 800029a:	601a      	str	r2, [r3, #0]
  RCC_OscInitStruct.HSIState = RCC_HSI_ON;
 800029c:	187b      	adds	r3, r7, r1
 800029e:	2201      	movs	r2, #1
 80002a0:	60da      	str	r2, [r3, #12]
  RCC_OscInitStruct.HSICalibrationValue = RCC_HSICALIBRATION_DEFAULT;
 80002a2:	187b      	adds	r3, r7, r1
 80002a4:	2210      	movs	r2, #16
 80002a6:	611a      	str	r2, [r3, #16]
  RCC_OscInitStruct.PLL.PLLState = RCC_PLL_NONE;
 80002a8:	187b      	adds	r3, r7, r1
 80002aa:	2200      	movs	r2, #0
 80002ac:	621a      	str	r2, [r3, #32]
  if (HAL_RCC_OscConfig(&RCC_OscInitStruct) != HAL_OK)
 80002ae:	187b      	adds	r3, r7, r1
 80002b0:	0018      	movs	r0, r3
 80002b2:	f000 fbb3 	bl	8000a1c <HAL_RCC_OscConfig>
 80002b6:	0003      	movs	r3, r0
 80002b8:	1e5a      	subs	r2, r3, #1
 80002ba:	4193      	sbcs	r3, r2
 80002bc:	b2db      	uxtb	r3, r3
 80002be:	2b00      	cmp	r3, #0
 80002c0:	d001      	beq.n	80002c6 <_Z18SystemClock_Configv+0x56>
  {
    Error_Handler();
 80002c2:	f000 f877 	bl	80003b4 <Error_Handler>
  }
  /** Initializes the CPU, AHB and APB busses clocks 
  */
  RCC_ClkInitStruct.ClockType = RCC_CLOCKTYPE_HCLK|RCC_CLOCKTYPE_SYSCLK
 80002c6:	003b      	movs	r3, r7
 80002c8:	2207      	movs	r2, #7
 80002ca:	601a      	str	r2, [r3, #0]
                              |RCC_CLOCKTYPE_PCLK1;
  RCC_ClkInitStruct.SYSCLKSource = RCC_SYSCLKSOURCE_HSI;
 80002cc:	003b      	movs	r3, r7
 80002ce:	2200      	movs	r2, #0
 80002d0:	605a      	str	r2, [r3, #4]
  RCC_ClkInitStruct.AHBCLKDivider = RCC_SYSCLK_DIV1;
 80002d2:	003b      	movs	r3, r7
 80002d4:	2200      	movs	r2, #0
 80002d6:	609a      	str	r2, [r3, #8]
  RCC_ClkInitStruct.APB1CLKDivider = RCC_HCLK_DIV1;
 80002d8:	003b      	movs	r3, r7
 80002da:	2200      	movs	r2, #0
 80002dc:	60da      	str	r2, [r3, #12]

  if (HAL_RCC_ClockConfig(&RCC_ClkInitStruct, FLASH_LATENCY_0) != HAL_OK)
 80002de:	003b      	movs	r3, r7
 80002e0:	2100      	movs	r1, #0
 80002e2:	0018      	movs	r0, r3
 80002e4:	f000 feb6 	bl	8001054 <HAL_RCC_ClockConfig>
 80002e8:	0003      	movs	r3, r0
 80002ea:	1e5a      	subs	r2, r3, #1
 80002ec:	4193      	sbcs	r3, r2
 80002ee:	b2db      	uxtb	r3, r3
 80002f0:	2b00      	cmp	r3, #0
 80002f2:	d001      	beq.n	80002f8 <_Z18SystemClock_Configv+0x88>
  {
    Error_Handler();
 80002f4:	f000 f85e 	bl	80003b4 <Error_Handler>
  }
}
 80002f8:	46c0      	nop			; (mov r8, r8)
 80002fa:	46bd      	mov	sp, r7
 80002fc:	b011      	add	sp, #68	; 0x44
 80002fe:	bd90      	pop	{r4, r7, pc}

08000300 <_ZL12MX_GPIO_Initv>:
  * @brief GPIO Initialization Function
  * @param None
  * @retval None
  */
static void MX_GPIO_Init(void)
{
 8000300:	b590      	push	{r4, r7, lr}
 8000302:	b089      	sub	sp, #36	; 0x24
 8000304:	af00      	add	r7, sp, #0
  GPIO_InitTypeDef GPIO_InitStruct = {0};
 8000306:	240c      	movs	r4, #12
 8000308:	193b      	adds	r3, r7, r4
 800030a:	0018      	movs	r0, r3
 800030c:	2314      	movs	r3, #20
 800030e:	001a      	movs	r2, r3
 8000310:	2100      	movs	r1, #0
 8000312:	f000 fff5 	bl	8001300 <memset>

  /* GPIO Ports Clock Enable */
  __HAL_RCC_GPIOC_CLK_ENABLE();
 8000316:	4b25      	ldr	r3, [pc, #148]	; (80003ac <_ZL12MX_GPIO_Initv+0xac>)
 8000318:	695a      	ldr	r2, [r3, #20]
 800031a:	4b24      	ldr	r3, [pc, #144]	; (80003ac <_ZL12MX_GPIO_Initv+0xac>)
 800031c:	2180      	movs	r1, #128	; 0x80
 800031e:	0309      	lsls	r1, r1, #12
 8000320:	430a      	orrs	r2, r1
 8000322:	615a      	str	r2, [r3, #20]
 8000324:	4b21      	ldr	r3, [pc, #132]	; (80003ac <_ZL12MX_GPIO_Initv+0xac>)
 8000326:	695a      	ldr	r2, [r3, #20]
 8000328:	2380      	movs	r3, #128	; 0x80
 800032a:	031b      	lsls	r3, r3, #12
 800032c:	4013      	ands	r3, r2
 800032e:	60bb      	str	r3, [r7, #8]
 8000330:	68bb      	ldr	r3, [r7, #8]
  __HAL_RCC_GPIOA_CLK_ENABLE();
 8000332:	4b1e      	ldr	r3, [pc, #120]	; (80003ac <_ZL12MX_GPIO_Initv+0xac>)
 8000334:	695a      	ldr	r2, [r3, #20]
 8000336:	4b1d      	ldr	r3, [pc, #116]	; (80003ac <_ZL12MX_GPIO_Initv+0xac>)
 8000338:	2180      	movs	r1, #128	; 0x80
 800033a:	0289      	lsls	r1, r1, #10
 800033c:	430a      	orrs	r2, r1
 800033e:	615a      	str	r2, [r3, #20]
 8000340:	4b1a      	ldr	r3, [pc, #104]	; (80003ac <_ZL12MX_GPIO_Initv+0xac>)
 8000342:	695a      	ldr	r2, [r3, #20]
 8000344:	2380      	movs	r3, #128	; 0x80
 8000346:	029b      	lsls	r3, r3, #10
 8000348:	4013      	ands	r3, r2
 800034a:	607b      	str	r3, [r7, #4]
 800034c:	687b      	ldr	r3, [r7, #4]

  /*Configure GPIO pin Output Level */
  HAL_GPIO_WritePin(GPIOA, GPIO_PIN_5, GPIO_PIN_RESET);
 800034e:	2390      	movs	r3, #144	; 0x90
 8000350:	05db      	lsls	r3, r3, #23
 8000352:	2200      	movs	r2, #0
 8000354:	2120      	movs	r1, #32
 8000356:	0018      	movs	r0, r3
 8000358:	f000 fb43 	bl	80009e2 <HAL_GPIO_WritePin>

  /*Configure GPIO pin : PC13 */
  GPIO_InitStruct.Pin = GPIO_PIN_13;
 800035c:	193b      	adds	r3, r7, r4
 800035e:	2280      	movs	r2, #128	; 0x80
 8000360:	0192      	lsls	r2, r2, #6
 8000362:	601a      	str	r2, [r3, #0]
  GPIO_InitStruct.Mode = GPIO_MODE_INPUT;
 8000364:	193b      	adds	r3, r7, r4
 8000366:	2200      	movs	r2, #0
 8000368:	605a      	str	r2, [r3, #4]
  GPIO_InitStruct.Pull = GPIO_NOPULL;
 800036a:	193b      	adds	r3, r7, r4
 800036c:	2200      	movs	r2, #0
 800036e:	609a      	str	r2, [r3, #8]
  HAL_GPIO_Init(GPIOC, &GPIO_InitStruct);
 8000370:	193b      	adds	r3, r7, r4
 8000372:	4a0f      	ldr	r2, [pc, #60]	; (80003b0 <_ZL12MX_GPIO_Initv+0xb0>)
 8000374:	0019      	movs	r1, r3
 8000376:	0010      	movs	r0, r2
 8000378:	f000 f9a6 	bl	80006c8 <HAL_GPIO_Init>

  /*Configure GPIO pin : PA5 */
  GPIO_InitStruct.Pin = GPIO_PIN_5;
 800037c:	0021      	movs	r1, r4
 800037e:	187b      	adds	r3, r7, r1
 8000380:	2220      	movs	r2, #32
 8000382:	601a      	str	r2, [r3, #0]
  GPIO_InitStruct.Mode = GPIO_MODE_OUTPUT_PP;
 8000384:	187b      	adds	r3, r7, r1
 8000386:	2201      	movs	r2, #1
 8000388:	605a      	str	r2, [r3, #4]
  GPIO_InitStruct.Pull = GPIO_NOPULL;
 800038a:	187b      	adds	r3, r7, r1
 800038c:	2200      	movs	r2, #0
 800038e:	609a      	str	r2, [r3, #8]
  GPIO_InitStruct.Speed = GPIO_SPEED_FREQ_LOW;
 8000390:	187b      	adds	r3, r7, r1
 8000392:	2200      	movs	r2, #0
 8000394:	60da      	str	r2, [r3, #12]
  HAL_GPIO_Init(GPIOA, &GPIO_InitStruct);
 8000396:	187a      	adds	r2, r7, r1
 8000398:	2390      	movs	r3, #144	; 0x90
 800039a:	05db      	lsls	r3, r3, #23
 800039c:	0011      	movs	r1, r2
 800039e:	0018      	movs	r0, r3
 80003a0:	f000 f992 	bl	80006c8 <HAL_GPIO_Init>

}
 80003a4:	46c0      	nop			; (mov r8, r8)
 80003a6:	46bd      	mov	sp, r7
 80003a8:	b009      	add	sp, #36	; 0x24
 80003aa:	bd90      	pop	{r4, r7, pc}
 80003ac:	40021000 	.word	0x40021000
 80003b0:	48000800 	.word	0x48000800

080003b4 <Error_Handler>:
/**
  * @brief  This function is executed in case of error occurrence.
  * @retval None
  */
void Error_Handler(void)
{
 80003b4:	b580      	push	{r7, lr}
 80003b6:	af00      	add	r7, sp, #0
  /* USER CODE BEGIN Error_Handler_Debug */
  /* User can add his own implementation to report the HAL error return state */

  /* USER CODE END Error_Handler_Debug */
}
 80003b8:	46c0      	nop			; (mov r8, r8)
 80003ba:	46bd      	mov	sp, r7
 80003bc:	bd80      	pop	{r7, pc}
	...

080003c0 <HAL_MspInit>:
/* USER CODE END 0 */
/**
  * Initializes the Global MSP.
  */
void HAL_MspInit(void)
{
 80003c0:	b580      	push	{r7, lr}
 80003c2:	b082      	sub	sp, #8
 80003c4:	af00      	add	r7, sp, #0
  /* USER CODE BEGIN MspInit 0 */

  /* USER CODE END MspInit 0 */

  __HAL_RCC_SYSCFG_CLK_ENABLE();
 80003c6:	4b0f      	ldr	r3, [pc, #60]	; (8000404 <HAL_MspInit+0x44>)
 80003c8:	699a      	ldr	r2, [r3, #24]
 80003ca:	4b0e      	ldr	r3, [pc, #56]	; (8000404 <HAL_MspInit+0x44>)
 80003cc:	2101      	movs	r1, #1
 80003ce:	430a      	orrs	r2, r1
 80003d0:	619a      	str	r2, [r3, #24]
 80003d2:	4b0c      	ldr	r3, [pc, #48]	; (8000404 <HAL_MspInit+0x44>)
 80003d4:	699b      	ldr	r3, [r3, #24]
 80003d6:	2201      	movs	r2, #1
 80003d8:	4013      	ands	r3, r2
 80003da:	607b      	str	r3, [r7, #4]
 80003dc:	687b      	ldr	r3, [r7, #4]
  __HAL_RCC_PWR_CLK_ENABLE();
 80003de:	4b09      	ldr	r3, [pc, #36]	; (8000404 <HAL_MspInit+0x44>)
 80003e0:	69da      	ldr	r2, [r3, #28]
 80003e2:	4b08      	ldr	r3, [pc, #32]	; (8000404 <HAL_MspInit+0x44>)
 80003e4:	2180      	movs	r1, #128	; 0x80
 80003e6:	0549      	lsls	r1, r1, #21
 80003e8:	430a      	orrs	r2, r1
 80003ea:	61da      	str	r2, [r3, #28]
 80003ec:	4b05      	ldr	r3, [pc, #20]	; (8000404 <HAL_MspInit+0x44>)
 80003ee:	69da      	ldr	r2, [r3, #28]
 80003f0:	2380      	movs	r3, #128	; 0x80
 80003f2:	055b      	lsls	r3, r3, #21
 80003f4:	4013      	ands	r3, r2
 80003f6:	603b      	str	r3, [r7, #0]
 80003f8:	683b      	ldr	r3, [r7, #0]
  /* System interrupt init*/

  /* USER CODE BEGIN MspInit 1 */

  /* USER CODE END MspInit 1 */
}
 80003fa:	46c0      	nop			; (mov r8, r8)
 80003fc:	46bd      	mov	sp, r7
 80003fe:	b002      	add	sp, #8
 8000400:	bd80      	pop	{r7, pc}
 8000402:	46c0      	nop			; (mov r8, r8)
 8000404:	40021000 	.word	0x40021000

08000408 <NMI_Handler>:
/******************************************************************************/
/**
  * @brief This function handles Non maskable interrupt.
  */
void NMI_Handler(void)
{
 8000408:	b580      	push	{r7, lr}
 800040a:	af00      	add	r7, sp, #0

  /* USER CODE END NonMaskableInt_IRQn 0 */
  /* USER CODE BEGIN NonMaskableInt_IRQn 1 */

  /* USER CODE END NonMaskableInt_IRQn 1 */
}
 800040c:	46c0      	nop			; (mov r8, r8)
 800040e:	46bd      	mov	sp, r7
 8000410:	bd80      	pop	{r7, pc}

08000412 <HardFault_Handler>:

/**
  * @brief This function handles Hard fault interrupt.
  */
void HardFault_Handler(void)
{
 8000412:	b580      	push	{r7, lr}
 8000414:	af00      	add	r7, sp, #0
  /* USER CODE BEGIN HardFault_IRQn 0 */

  /* USER CODE END HardFault_IRQn 0 */
  while (1)
 8000416:	e7fe      	b.n	8000416 <HardFault_Handler+0x4>

08000418 <SVC_Handler>:

/**
  * @brief This function handles System service call via SWI instruction.
  */
void SVC_Handler(void)
{
 8000418:	b580      	push	{r7, lr}
 800041a:	af00      	add	r7, sp, #0

  /* USER CODE END SVC_IRQn 0 */
  /* USER CODE BEGIN SVC_IRQn 1 */

  /* USER CODE END SVC_IRQn 1 */
}
 800041c:	46c0      	nop			; (mov r8, r8)
 800041e:	46bd      	mov	sp, r7
 8000420:	bd80      	pop	{r7, pc}

08000422 <PendSV_Handler>:

/**
  * @brief This function handles Pendable request for system service.
  */
void PendSV_Handler(void)
{
 8000422:	b580      	push	{r7, lr}
 8000424:	af00      	add	r7, sp, #0

  /* USER CODE END PendSV_IRQn 0 */
  /* USER CODE BEGIN PendSV_IRQn 1 */

  /* USER CODE END PendSV_IRQn 1 */
}
 8000426:	46c0      	nop			; (mov r8, r8)
 8000428:	46bd      	mov	sp, r7
 800042a:	bd80      	pop	{r7, pc}

0800042c <SysTick_Handler>:

/**
  * @brief This function handles System tick timer.
  */
void SysTick_Handler(void)
{
 800042c:	b580      	push	{r7, lr}
 800042e:	af00      	add	r7, sp, #0
  /* USER CODE BEGIN SysTick_IRQn 0 */

  /* USER CODE END SysTick_IRQn 0 */
  HAL_IncTick();
 8000430:	f000 f87a 	bl	8000528 <HAL_IncTick>
  /* USER CODE BEGIN SysTick_IRQn 1 */

  /* USER CODE END SysTick_IRQn 1 */
}
 8000434:	46c0      	nop			; (mov r8, r8)
 8000436:	46bd      	mov	sp, r7
 8000438:	bd80      	pop	{r7, pc}

0800043a <SystemInit>:
  * @brief  Setup the microcontroller system.
  * @param  None
  * @retval None
  */
void SystemInit(void)
{
 800043a:	b580      	push	{r7, lr}
 800043c:	af00      	add	r7, sp, #0
                         before branch to main program. This call is made inside
                         the "startup_stm32f0xx.s" file.
                         User can setups the default system clock (System clock source, PLL Multiplier
                         and Divider factors, AHB/APBx prescalers and Flash settings).
   */
}
 800043e:	46c0      	nop			; (mov r8, r8)
 8000440:	46bd      	mov	sp, r7
 8000442:	bd80      	pop	{r7, pc}

08000444 <Reset_Handler>:

  .section .text.Reset_Handler
  .weak Reset_Handler
  .type Reset_Handler, %function
Reset_Handler:
  ldr   r0, =_estack
 8000444:	480d      	ldr	r0, [pc, #52]	; (800047c <LoopForever+0x2>)
  mov   sp, r0          /* set stack pointer */
 8000446:	4685      	mov	sp, r0

/* Copy the data segment initializers from flash to SRAM */
  ldr r0, =_sdata
 8000448:	480d      	ldr	r0, [pc, #52]	; (8000480 <LoopForever+0x6>)
  ldr r1, =_edata
 800044a:	490e      	ldr	r1, [pc, #56]	; (8000484 <LoopForever+0xa>)
  ldr r2, =_sidata
 800044c:	4a0e      	ldr	r2, [pc, #56]	; (8000488 <LoopForever+0xe>)
  movs r3, #0
 800044e:	2300      	movs	r3, #0
  b LoopCopyDataInit
 8000450:	e002      	b.n	8000458 <LoopCopyDataInit>

08000452 <CopyDataInit>:

CopyDataInit:
  ldr r4, [r2, r3]
 8000452:	58d4      	ldr	r4, [r2, r3]
  str r4, [r0, r3]
 8000454:	50c4      	str	r4, [r0, r3]
  adds r3, r3, #4
 8000456:	3304      	adds	r3, #4

08000458 <LoopCopyDataInit>:

LoopCopyDataInit:
  adds r4, r0, r3
 8000458:	18c4      	adds	r4, r0, r3
  cmp r4, r1
 800045a:	428c      	cmp	r4, r1
  bcc CopyDataInit
 800045c:	d3f9      	bcc.n	8000452 <CopyDataInit>
  
/* Zero fill the bss segment. */
  ldr r2, =_sbss
 800045e:	4a0b      	ldr	r2, [pc, #44]	; (800048c <LoopForever+0x12>)
  ldr r4, =_ebss
 8000460:	4c0b      	ldr	r4, [pc, #44]	; (8000490 <LoopForever+0x16>)
  movs r3, #0
 8000462:	2300      	movs	r3, #0
  b LoopFillZerobss
 8000464:	e001      	b.n	800046a <LoopFillZerobss>

08000466 <FillZerobss>:

FillZerobss:
  str  r3, [r2]
 8000466:	6013      	str	r3, [r2, #0]
  adds r2, r2, #4
 8000468:	3204      	adds	r2, #4

0800046a <LoopFillZerobss>:

LoopFillZerobss:
  cmp r2, r4
 800046a:	42a2      	cmp	r2, r4
  bcc FillZerobss
 800046c:	d3fb      	bcc.n	8000466 <FillZerobss>

/* Call the clock system intitialization function.*/
  bl  SystemInit
 800046e:	f7ff ffe4 	bl	800043a <SystemInit>
/* Call static constructors */
  bl __libc_init_array
 8000472:	f000 ff21 	bl	80012b8 <__libc_init_array>
/* Call the application's entry point.*/
  bl main
 8000476:	f7ff fed3 	bl	8000220 <main>

0800047a <LoopForever>:

LoopForever:
    b LoopForever
 800047a:	e7fe      	b.n	800047a <LoopForever>
  ldr   r0, =_estack
 800047c:	20002000 	.word	0x20002000
  ldr r0, =_sdata
 8000480:	20000000 	.word	0x20000000
  ldr r1, =_edata
 8000484:	2000000c 	.word	0x2000000c
  ldr r2, =_sidata
 8000488:	08001360 	.word	0x08001360
  ldr r2, =_sbss
 800048c:	2000000c 	.word	0x2000000c
  ldr r4, =_ebss
 8000490:	2000002c 	.word	0x2000002c

08000494 <ADC1_IRQHandler>:
 * @retval : None
*/
    .section .text.Default_Handler,"ax",%progbits
Default_Handler:
Infinite_Loop:
  b Infinite_Loop
 8000494:	e7fe      	b.n	8000494 <ADC1_IRQHandler>
	...

08000498 <HAL_Init>:
  *       In the default implementation,Systick is used as source of time base.
  *       The tick variable is incremented each 1ms in its ISR.
  * @retval HAL status
  */
HAL_StatusTypeDef HAL_Init(void)
{
 8000498:	b580      	push	{r7, lr}
 800049a:	af00      	add	r7, sp, #0
  /* Configure Flash prefetch */ 
#if (PREFETCH_ENABLE != 0)
  __HAL_FLASH_PREFETCH_BUFFER_ENABLE();
 800049c:	4b07      	ldr	r3, [pc, #28]	; (80004bc <HAL_Init+0x24>)
 800049e:	681a      	ldr	r2, [r3, #0]
 80004a0:	4b06      	ldr	r3, [pc, #24]	; (80004bc <HAL_Init+0x24>)
 80004a2:	2110      	movs	r1, #16
 80004a4:	430a      	orrs	r2, r1
 80004a6:	601a      	str	r2, [r3, #0]
#endif /* PREFETCH_ENABLE */

  /* Use systick as time base source and configure 1ms tick (default clock after Reset is HSI) */

  HAL_InitTick(TICK_INT_PRIORITY);
 80004a8:	2000      	movs	r0, #0
 80004aa:	f000 f809 	bl	80004c0 <HAL_InitTick>

  /* Init the low level hardware */
  HAL_MspInit();
 80004ae:	f7ff ff87 	bl	80003c0 <HAL_MspInit>

  /* Return function status */
  return HAL_OK;
 80004b2:	2300      	movs	r3, #0
}
 80004b4:	0018      	movs	r0, r3
 80004b6:	46bd      	mov	sp, r7
 80004b8:	bd80      	pop	{r7, pc}
 80004ba:	46c0      	nop			; (mov r8, r8)
 80004bc:	40022000 	.word	0x40022000

080004c0 <HAL_InitTick>:
  *       implementation  in user file.
  * @param TickPriority Tick interrupt priority.
  * @retval HAL status
  */
__weak HAL_StatusTypeDef HAL_InitTick(uint32_t TickPriority)
{
 80004c0:	b590      	push	{r4, r7, lr}
 80004c2:	b083      	sub	sp, #12
 80004c4:	af00      	add	r7, sp, #0
 80004c6:	6078      	str	r0, [r7, #4]
  /*Configure the SysTick to have interrupt in 1ms time basis*/
  if (HAL_SYSTICK_Config(SystemCoreClock / (1000U / uwTickFreq)) > 0U)
 80004c8:	4b14      	ldr	r3, [pc, #80]	; (800051c <HAL_InitTick+0x5c>)
 80004ca:	681c      	ldr	r4, [r3, #0]
 80004cc:	4b14      	ldr	r3, [pc, #80]	; (8000520 <HAL_InitTick+0x60>)
 80004ce:	781b      	ldrb	r3, [r3, #0]
 80004d0:	0019      	movs	r1, r3
 80004d2:	23fa      	movs	r3, #250	; 0xfa
 80004d4:	0098      	lsls	r0, r3, #2
 80004d6:	f7ff fe17 	bl	8000108 <__udivsi3>
 80004da:	0003      	movs	r3, r0
 80004dc:	0019      	movs	r1, r3
 80004de:	0020      	movs	r0, r4
 80004e0:	f7ff fe12 	bl	8000108 <__udivsi3>
 80004e4:	0003      	movs	r3, r0
 80004e6:	0018      	movs	r0, r3
 80004e8:	f000 f8e1 	bl	80006ae <HAL_SYSTICK_Config>
 80004ec:	1e03      	subs	r3, r0, #0
 80004ee:	d001      	beq.n	80004f4 <HAL_InitTick+0x34>
  {
    return HAL_ERROR;
 80004f0:	2301      	movs	r3, #1
 80004f2:	e00f      	b.n	8000514 <HAL_InitTick+0x54>
  }

  /* Configure the SysTick IRQ priority */
  if (TickPriority < (1UL << __NVIC_PRIO_BITS))
 80004f4:	687b      	ldr	r3, [r7, #4]
 80004f6:	2b03      	cmp	r3, #3
 80004f8:	d80b      	bhi.n	8000512 <HAL_InitTick+0x52>
  {
    HAL_NVIC_SetPriority(SysTick_IRQn, TickPriority, 0U);
 80004fa:	6879      	ldr	r1, [r7, #4]
 80004fc:	2301      	movs	r3, #1
 80004fe:	425b      	negs	r3, r3
 8000500:	2200      	movs	r2, #0
 8000502:	0018      	movs	r0, r3
 8000504:	f000 f8be 	bl	8000684 <HAL_NVIC_SetPriority>
    uwTickPrio = TickPriority;
 8000508:	4b06      	ldr	r3, [pc, #24]	; (8000524 <HAL_InitTick+0x64>)
 800050a:	687a      	ldr	r2, [r7, #4]
 800050c:	601a      	str	r2, [r3, #0]
  {
    return HAL_ERROR;
  }

   /* Return function status */
  return HAL_OK;
 800050e:	2300      	movs	r3, #0
 8000510:	e000      	b.n	8000514 <HAL_InitTick+0x54>
    return HAL_ERROR;
 8000512:	2301      	movs	r3, #1
}
 8000514:	0018      	movs	r0, r3
 8000516:	46bd      	mov	sp, r7
 8000518:	b003      	add	sp, #12
 800051a:	bd90      	pop	{r4, r7, pc}
 800051c:	20000000 	.word	0x20000000
 8000520:	20000008 	.word	0x20000008
 8000524:	20000004 	.word	0x20000004

08000528 <HAL_IncTick>:
  * @note This function is declared as __weak to be overwritten in case of other 
  *       implementations in user file.
  * @retval None
  */
__weak void HAL_IncTick(void)
{
 8000528:	b580      	push	{r7, lr}
 800052a:	af00      	add	r7, sp, #0
  uwTick += uwTickFreq;
 800052c:	4b05      	ldr	r3, [pc, #20]	; (8000544 <HAL_IncTick+0x1c>)
 800052e:	781b      	ldrb	r3, [r3, #0]
 8000530:	001a      	movs	r2, r3
 8000532:	4b05      	ldr	r3, [pc, #20]	; (8000548 <HAL_IncTick+0x20>)
 8000534:	681b      	ldr	r3, [r3, #0]
 8000536:	18d2      	adds	r2, r2, r3
 8000538:	4b03      	ldr	r3, [pc, #12]	; (8000548 <HAL_IncTick+0x20>)
 800053a:	601a      	str	r2, [r3, #0]
}
 800053c:	46c0      	nop			; (mov r8, r8)
 800053e:	46bd      	mov	sp, r7
 8000540:	bd80      	pop	{r7, pc}
 8000542:	46c0      	nop			; (mov r8, r8)
 8000544:	20000008 	.word	0x20000008
 8000548:	20000028 	.word	0x20000028

0800054c <HAL_GetTick>:
  * @note   This function is declared as __weak  to be overwritten  in case of other 
  *       implementations in user file.
  * @retval tick value
  */
__weak uint32_t HAL_GetTick(void)
{
 800054c:	b580      	push	{r7, lr}
 800054e:	af00      	add	r7, sp, #0
  return uwTick;
 8000550:	4b02      	ldr	r3, [pc, #8]	; (800055c <HAL_GetTick+0x10>)
 8000552:	681b      	ldr	r3, [r3, #0]
}
 8000554:	0018      	movs	r0, r3
 8000556:	46bd      	mov	sp, r7
 8000558:	bd80      	pop	{r7, pc}
 800055a:	46c0      	nop			; (mov r8, r8)
 800055c:	20000028 	.word	0x20000028

08000560 <__NVIC_SetPriority>:
  \param [in]      IRQn  Interrupt number.
  \param [in]  priority  Priority to set.
  \note    The priority cannot be set for every processor exception.
 */
__STATIC_INLINE void __NVIC_SetPriority(IRQn_Type IRQn, uint32_t priority)
{
 8000560:	b590      	push	{r4, r7, lr}
 8000562:	b083      	sub	sp, #12
 8000564:	af00      	add	r7, sp, #0
 8000566:	0002      	movs	r2, r0
 8000568:	6039      	str	r1, [r7, #0]
 800056a:	1dfb      	adds	r3, r7, #7
 800056c:	701a      	strb	r2, [r3, #0]
  if ((int32_t)(IRQn) >= 0)
 800056e:	1dfb      	adds	r3, r7, #7
 8000570:	781b      	ldrb	r3, [r3, #0]
 8000572:	2b7f      	cmp	r3, #127	; 0x7f
 8000574:	d828      	bhi.n	80005c8 <__NVIC_SetPriority+0x68>
  {
    NVIC->IP[_IP_IDX(IRQn)]  = ((uint32_t)(NVIC->IP[_IP_IDX(IRQn)]  & ~(0xFFUL << _BIT_SHIFT(IRQn))) |
 8000576:	4a2f      	ldr	r2, [pc, #188]	; (8000634 <__NVIC_SetPriority+0xd4>)
 8000578:	1dfb      	adds	r3, r7, #7
 800057a:	781b      	ldrb	r3, [r3, #0]
 800057c:	b25b      	sxtb	r3, r3
 800057e:	089b      	lsrs	r3, r3, #2
 8000580:	33c0      	adds	r3, #192	; 0xc0
 8000582:	009b      	lsls	r3, r3, #2
 8000584:	589b      	ldr	r3, [r3, r2]
 8000586:	1dfa      	adds	r2, r7, #7
 8000588:	7812      	ldrb	r2, [r2, #0]
 800058a:	0011      	movs	r1, r2
 800058c:	2203      	movs	r2, #3
 800058e:	400a      	ands	r2, r1
 8000590:	00d2      	lsls	r2, r2, #3
 8000592:	21ff      	movs	r1, #255	; 0xff
 8000594:	4091      	lsls	r1, r2
 8000596:	000a      	movs	r2, r1
 8000598:	43d2      	mvns	r2, r2
 800059a:	401a      	ands	r2, r3
 800059c:	0011      	movs	r1, r2
       (((priority << (8U - __NVIC_PRIO_BITS)) & (uint32_t)0xFFUL) << _BIT_SHIFT(IRQn)));
 800059e:	683b      	ldr	r3, [r7, #0]
 80005a0:	019b      	lsls	r3, r3, #6
 80005a2:	22ff      	movs	r2, #255	; 0xff
 80005a4:	401a      	ands	r2, r3
 80005a6:	1dfb      	adds	r3, r7, #7
 80005a8:	781b      	ldrb	r3, [r3, #0]
 80005aa:	0018      	movs	r0, r3
 80005ac:	2303      	movs	r3, #3
 80005ae:	4003      	ands	r3, r0
 80005b0:	00db      	lsls	r3, r3, #3
 80005b2:	409a      	lsls	r2, r3
    NVIC->IP[_IP_IDX(IRQn)]  = ((uint32_t)(NVIC->IP[_IP_IDX(IRQn)]  & ~(0xFFUL << _BIT_SHIFT(IRQn))) |
 80005b4:	481f      	ldr	r0, [pc, #124]	; (8000634 <__NVIC_SetPriority+0xd4>)
 80005b6:	1dfb      	adds	r3, r7, #7
 80005b8:	781b      	ldrb	r3, [r3, #0]
 80005ba:	b25b      	sxtb	r3, r3
 80005bc:	089b      	lsrs	r3, r3, #2
 80005be:	430a      	orrs	r2, r1
 80005c0:	33c0      	adds	r3, #192	; 0xc0
 80005c2:	009b      	lsls	r3, r3, #2
 80005c4:	501a      	str	r2, [r3, r0]
  else
  {
    SCB->SHP[_SHP_IDX(IRQn)] = ((uint32_t)(SCB->SHP[_SHP_IDX(IRQn)] & ~(0xFFUL << _BIT_SHIFT(IRQn))) |
       (((priority << (8U - __NVIC_PRIO_BITS)) & (uint32_t)0xFFUL) << _BIT_SHIFT(IRQn)));
  }
}
 80005c6:	e031      	b.n	800062c <__NVIC_SetPriority+0xcc>
    SCB->SHP[_SHP_IDX(IRQn)] = ((uint32_t)(SCB->SHP[_SHP_IDX(IRQn)] & ~(0xFFUL << _BIT_SHIFT(IRQn))) |
 80005c8:	4a1b      	ldr	r2, [pc, #108]	; (8000638 <__NVIC_SetPriority+0xd8>)
 80005ca:	1dfb      	adds	r3, r7, #7
 80005cc:	781b      	ldrb	r3, [r3, #0]
 80005ce:	0019      	movs	r1, r3
 80005d0:	230f      	movs	r3, #15
 80005d2:	400b      	ands	r3, r1
 80005d4:	3b08      	subs	r3, #8
 80005d6:	089b      	lsrs	r3, r3, #2
 80005d8:	3306      	adds	r3, #6
 80005da:	009b      	lsls	r3, r3, #2
 80005dc:	18d3      	adds	r3, r2, r3
 80005de:	3304      	adds	r3, #4
 80005e0:	681b      	ldr	r3, [r3, #0]
 80005e2:	1dfa      	adds	r2, r7, #7
 80005e4:	7812      	ldrb	r2, [r2, #0]
 80005e6:	0011      	movs	r1, r2
 80005e8:	2203      	movs	r2, #3
 80005ea:	400a      	ands	r2, r1
 80005ec:	00d2      	lsls	r2, r2, #3
 80005ee:	21ff      	movs	r1, #255	; 0xff
 80005f0:	4091      	lsls	r1, r2
 80005f2:	000a      	movs	r2, r1
 80005f4:	43d2      	mvns	r2, r2
 80005f6:	401a      	ands	r2, r3
 80005f8:	0011      	movs	r1, r2
       (((priority << (8U - __NVIC_PRIO_BITS)) & (uint32_t)0xFFUL) << _BIT_SHIFT(IRQn)));
 80005fa:	683b      	ldr	r3, [r7, #0]
 80005fc:	019b      	lsls	r3, r3, #6
 80005fe:	22ff      	movs	r2, #255	; 0xff
 8000600:	401a      	ands	r2, r3
 8000602:	1dfb      	adds	r3, r7, #7
 8000604:	781b      	ldrb	r3, [r3, #0]
 8000606:	0018      	movs	r0, r3
 8000608:	2303      	movs	r3, #3
 800060a:	4003      	ands	r3, r0
 800060c:	00db      	lsls	r3, r3, #3
 800060e:	409a      	lsls	r2, r3
    SCB->SHP[_SHP_IDX(IRQn)] = ((uint32_t)(SCB->SHP[_SHP_IDX(IRQn)] & ~(0xFFUL << _BIT_SHIFT(IRQn))) |
 8000610:	4809      	ldr	r0, [pc, #36]	; (8000638 <__NVIC_SetPriority+0xd8>)
 8000612:	1dfb      	adds	r3, r7, #7
 8000614:	781b      	ldrb	r3, [r3, #0]
 8000616:	001c      	movs	r4, r3
 8000618:	230f      	movs	r3, #15
 800061a:	4023      	ands	r3, r4
 800061c:	3b08      	subs	r3, #8
 800061e:	089b      	lsrs	r3, r3, #2
 8000620:	430a      	orrs	r2, r1
 8000622:	3306      	adds	r3, #6
 8000624:	009b      	lsls	r3, r3, #2
 8000626:	18c3      	adds	r3, r0, r3
 8000628:	3304      	adds	r3, #4
 800062a:	601a      	str	r2, [r3, #0]
}
 800062c:	46c0      	nop			; (mov r8, r8)
 800062e:	46bd      	mov	sp, r7
 8000630:	b003      	add	sp, #12
 8000632:	bd90      	pop	{r4, r7, pc}
 8000634:	e000e100 	.word	0xe000e100
 8000638:	e000ed00 	.word	0xe000ed00

0800063c <SysTick_Config>:
  \note    When the variable <b>__Vendor_SysTickConfig</b> is set to 1, then the
           function <b>SysTick_Config</b> is not included. In this case, the file <b><i>device</i>.h</b>
           must contain a vendor-specific implementation of this function.
 */
__STATIC_INLINE uint32_t SysTick_Config(uint32_t ticks)
{
 800063c:	b580      	push	{r7, lr}
 800063e:	b082      	sub	sp, #8
 8000640:	af00      	add	r7, sp, #0
 8000642:	6078      	str	r0, [r7, #4]
  if ((ticks - 1UL) > SysTick_LOAD_RELOAD_Msk)
 8000644:	687b      	ldr	r3, [r7, #4]
 8000646:	3b01      	subs	r3, #1
 8000648:	4a0c      	ldr	r2, [pc, #48]	; (800067c <SysTick_Config+0x40>)
 800064a:	4293      	cmp	r3, r2
 800064c:	d901      	bls.n	8000652 <SysTick_Config+0x16>
  {
    return (1UL);                                                   /* Reload value impossible */
 800064e:	2301      	movs	r3, #1
 8000650:	e010      	b.n	8000674 <SysTick_Config+0x38>
  }

  SysTick->LOAD  = (uint32_t)(ticks - 1UL);                         /* set reload register */
 8000652:	4b0b      	ldr	r3, [pc, #44]	; (8000680 <SysTick_Config+0x44>)
 8000654:	687a      	ldr	r2, [r7, #4]
 8000656:	3a01      	subs	r2, #1
 8000658:	605a      	str	r2, [r3, #4]
  NVIC_SetPriority (SysTick_IRQn, (1UL << __NVIC_PRIO_BITS) - 1UL); /* set Priority for Systick Interrupt */
 800065a:	2301      	movs	r3, #1
 800065c:	425b      	negs	r3, r3
 800065e:	2103      	movs	r1, #3
 8000660:	0018      	movs	r0, r3
 8000662:	f7ff ff7d 	bl	8000560 <__NVIC_SetPriority>
  SysTick->VAL   = 0UL;                                             /* Load the SysTick Counter Value */
 8000666:	4b06      	ldr	r3, [pc, #24]	; (8000680 <SysTick_Config+0x44>)
 8000668:	2200      	movs	r2, #0
 800066a:	609a      	str	r2, [r3, #8]
  SysTick->CTRL  = SysTick_CTRL_CLKSOURCE_Msk |
 800066c:	4b04      	ldr	r3, [pc, #16]	; (8000680 <SysTick_Config+0x44>)
 800066e:	2207      	movs	r2, #7
 8000670:	601a      	str	r2, [r3, #0]
                   SysTick_CTRL_TICKINT_Msk   |
                   SysTick_CTRL_ENABLE_Msk;                         /* Enable SysTick IRQ and SysTick Timer */
  return (0UL);                                                     /* Function successful */
 8000672:	2300      	movs	r3, #0
}
 8000674:	0018      	movs	r0, r3
 8000676:	46bd      	mov	sp, r7
 8000678:	b002      	add	sp, #8
 800067a:	bd80      	pop	{r7, pc}
 800067c:	00ffffff 	.word	0x00ffffff
 8000680:	e000e010 	.word	0xe000e010

08000684 <HAL_NVIC_SetPriority>:
  *         with stm32f0xx devices, this parameter is a dummy value and it is ignored, because 
  *         no subpriority supported in Cortex M0 based products.   
  * @retval None
  */
void HAL_NVIC_SetPriority(IRQn_Type IRQn, uint32_t PreemptPriority, uint32_t SubPriority)
{ 
 8000684:	b580      	push	{r7, lr}
 8000686:	b084      	sub	sp, #16
 8000688:	af00      	add	r7, sp, #0
 800068a:	60b9      	str	r1, [r7, #8]
 800068c:	607a      	str	r2, [r7, #4]
 800068e:	210f      	movs	r1, #15
 8000690:	187b      	adds	r3, r7, r1
 8000692:	1c02      	adds	r2, r0, #0
 8000694:	701a      	strb	r2, [r3, #0]
  /* Check the parameters */
  assert_param(IS_NVIC_PREEMPTION_PRIORITY(PreemptPriority));
  NVIC_SetPriority(IRQn,PreemptPriority);
 8000696:	68ba      	ldr	r2, [r7, #8]
 8000698:	187b      	adds	r3, r7, r1
 800069a:	781b      	ldrb	r3, [r3, #0]
 800069c:	b25b      	sxtb	r3, r3
 800069e:	0011      	movs	r1, r2
 80006a0:	0018      	movs	r0, r3
 80006a2:	f7ff ff5d 	bl	8000560 <__NVIC_SetPriority>
}
 80006a6:	46c0      	nop			; (mov r8, r8)
 80006a8:	46bd      	mov	sp, r7
 80006aa:	b004      	add	sp, #16
 80006ac:	bd80      	pop	{r7, pc}

080006ae <HAL_SYSTICK_Config>:
  * @param  TicksNumb Specifies the ticks Number of ticks between two interrupts.
  * @retval status:  - 0  Function succeeded.
  *                  - 1  Function failed.
  */
uint32_t HAL_SYSTICK_Config(uint32_t TicksNumb)
{
 80006ae:	b580      	push	{r7, lr}
 80006b0:	b082      	sub	sp, #8
 80006b2:	af00      	add	r7, sp, #0
 80006b4:	6078      	str	r0, [r7, #4]
   return SysTick_Config(TicksNumb);
 80006b6:	687b      	ldr	r3, [r7, #4]
 80006b8:	0018      	movs	r0, r3
 80006ba:	f7ff ffbf 	bl	800063c <SysTick_Config>
 80006be:	0003      	movs	r3, r0
}
 80006c0:	0018      	movs	r0, r3
 80006c2:	46bd      	mov	sp, r7
 80006c4:	b002      	add	sp, #8
 80006c6:	bd80      	pop	{r7, pc}

080006c8 <HAL_GPIO_Init>:
  * @param  GPIO_Init pointer to a GPIO_InitTypeDef structure that contains
  *         the configuration information for the specified GPIO peripheral.
  * @retval None
  */
void HAL_GPIO_Init(GPIO_TypeDef  *GPIOx, GPIO_InitTypeDef *GPIO_Init)
{ 
 80006c8:	b580      	push	{r7, lr}
 80006ca:	b086      	sub	sp, #24
 80006cc:	af00      	add	r7, sp, #0
 80006ce:	6078      	str	r0, [r7, #4]
 80006d0:	6039      	str	r1, [r7, #0]
  uint32_t position = 0x00u;
 80006d2:	2300      	movs	r3, #0
 80006d4:	617b      	str	r3, [r7, #20]
  assert_param(IS_GPIO_PIN(GPIO_Init->Pin));
  assert_param(IS_GPIO_MODE(GPIO_Init->Mode));
  assert_param(IS_GPIO_PULL(GPIO_Init->Pull));

  /* Configure the port pins */
  while (((GPIO_Init->Pin) >> position) != 0x00u)
 80006d6:	e14f      	b.n	8000978 <HAL_GPIO_Init+0x2b0>
  {
    /* Get current io position */
    iocurrent = (GPIO_Init->Pin) & (1uL << position);
 80006d8:	683b      	ldr	r3, [r7, #0]
 80006da:	681b      	ldr	r3, [r3, #0]
 80006dc:	2101      	movs	r1, #1
 80006de:	697a      	ldr	r2, [r7, #20]
 80006e0:	4091      	lsls	r1, r2
 80006e2:	000a      	movs	r2, r1
 80006e4:	4013      	ands	r3, r2
 80006e6:	60fb      	str	r3, [r7, #12]

    if (iocurrent != 0x00u)
 80006e8:	68fb      	ldr	r3, [r7, #12]
 80006ea:	2b00      	cmp	r3, #0
 80006ec:	d100      	bne.n	80006f0 <HAL_GPIO_Init+0x28>
 80006ee:	e140      	b.n	8000972 <HAL_GPIO_Init+0x2aa>
    {
      /*--------------------- GPIO Mode Configuration ------------------------*/
      /* In case of Alternate function mode selection */
      if((GPIO_Init->Mode == GPIO_MODE_AF_PP) || (GPIO_Init->Mode == GPIO_MODE_AF_OD))
 80006f0:	683b      	ldr	r3, [r7, #0]
 80006f2:	685b      	ldr	r3, [r3, #4]
 80006f4:	2b02      	cmp	r3, #2
 80006f6:	d003      	beq.n	8000700 <HAL_GPIO_Init+0x38>
 80006f8:	683b      	ldr	r3, [r7, #0]
 80006fa:	685b      	ldr	r3, [r3, #4]
 80006fc:	2b12      	cmp	r3, #18
 80006fe:	d123      	bne.n	8000748 <HAL_GPIO_Init+0x80>
        /* Check the Alternate function parameters */
        assert_param(IS_GPIO_AF_INSTANCE(GPIOx));
        assert_param(IS_GPIO_AF(GPIO_Init->Alternate));

        /* Configure Alternate function mapped with the current IO */
        temp = GPIOx->AFR[position >> 3u];
 8000700:	697b      	ldr	r3, [r7, #20]
 8000702:	08da      	lsrs	r2, r3, #3
 8000704:	687b      	ldr	r3, [r7, #4]
 8000706:	3208      	adds	r2, #8
 8000708:	0092      	lsls	r2, r2, #2
 800070a:	58d3      	ldr	r3, [r2, r3]
 800070c:	613b      	str	r3, [r7, #16]
        temp &= ~(0xFu << ((position & 0x07u) * 4u));
 800070e:	697b      	ldr	r3, [r7, #20]
 8000710:	2207      	movs	r2, #7
 8000712:	4013      	ands	r3, r2
 8000714:	009b      	lsls	r3, r3, #2
 8000716:	220f      	movs	r2, #15
 8000718:	409a      	lsls	r2, r3
 800071a:	0013      	movs	r3, r2
 800071c:	43da      	mvns	r2, r3
 800071e:	693b      	ldr	r3, [r7, #16]
 8000720:	4013      	ands	r3, r2
 8000722:	613b      	str	r3, [r7, #16]
        temp |= ((GPIO_Init->Alternate) << ((position & 0x07u) * 4u));
 8000724:	683b      	ldr	r3, [r7, #0]
 8000726:	691a      	ldr	r2, [r3, #16]
 8000728:	697b      	ldr	r3, [r7, #20]
 800072a:	2107      	movs	r1, #7
 800072c:	400b      	ands	r3, r1
 800072e:	009b      	lsls	r3, r3, #2
 8000730:	409a      	lsls	r2, r3
 8000732:	0013      	movs	r3, r2
 8000734:	693a      	ldr	r2, [r7, #16]
 8000736:	4313      	orrs	r3, r2
 8000738:	613b      	str	r3, [r7, #16]
        GPIOx->AFR[position >> 3u] = temp;
 800073a:	697b      	ldr	r3, [r7, #20]
 800073c:	08da      	lsrs	r2, r3, #3
 800073e:	687b      	ldr	r3, [r7, #4]
 8000740:	3208      	adds	r2, #8
 8000742:	0092      	lsls	r2, r2, #2
 8000744:	6939      	ldr	r1, [r7, #16]
 8000746:	50d1      	str	r1, [r2, r3]
      }

      /* Configure IO Direction mode (Input, Output, Alternate or Analog) */
      temp = GPIOx->MODER;
 8000748:	687b      	ldr	r3, [r7, #4]
 800074a:	681b      	ldr	r3, [r3, #0]
 800074c:	613b      	str	r3, [r7, #16]
      temp &= ~(GPIO_MODER_MODER0 << (position * 2u));
 800074e:	697b      	ldr	r3, [r7, #20]
 8000750:	005b      	lsls	r3, r3, #1
 8000752:	2203      	movs	r2, #3
 8000754:	409a      	lsls	r2, r3
 8000756:	0013      	movs	r3, r2
 8000758:	43da      	mvns	r2, r3
 800075a:	693b      	ldr	r3, [r7, #16]
 800075c:	4013      	ands	r3, r2
 800075e:	613b      	str	r3, [r7, #16]
      temp |= ((GPIO_Init->Mode & GPIO_MODE) << (position * 2u));
 8000760:	683b      	ldr	r3, [r7, #0]
 8000762:	685b      	ldr	r3, [r3, #4]
 8000764:	2203      	movs	r2, #3
 8000766:	401a      	ands	r2, r3
 8000768:	697b      	ldr	r3, [r7, #20]
 800076a:	005b      	lsls	r3, r3, #1
 800076c:	409a      	lsls	r2, r3
 800076e:	0013      	movs	r3, r2
 8000770:	693a      	ldr	r2, [r7, #16]
 8000772:	4313      	orrs	r3, r2
 8000774:	613b      	str	r3, [r7, #16]
      GPIOx->MODER = temp;
 8000776:	687b      	ldr	r3, [r7, #4]
 8000778:	693a      	ldr	r2, [r7, #16]
 800077a:	601a      	str	r2, [r3, #0]

      /* In case of Output or Alternate function mode selection */
      if((GPIO_Init->Mode == GPIO_MODE_OUTPUT_PP) || (GPIO_Init->Mode == GPIO_MODE_AF_PP) ||
 800077c:	683b      	ldr	r3, [r7, #0]
 800077e:	685b      	ldr	r3, [r3, #4]
 8000780:	2b01      	cmp	r3, #1
 8000782:	d00b      	beq.n	800079c <HAL_GPIO_Init+0xd4>
 8000784:	683b      	ldr	r3, [r7, #0]
 8000786:	685b      	ldr	r3, [r3, #4]
 8000788:	2b02      	cmp	r3, #2
 800078a:	d007      	beq.n	800079c <HAL_GPIO_Init+0xd4>
         (GPIO_Init->Mode == GPIO_MODE_OUTPUT_OD) || (GPIO_Init->Mode == GPIO_MODE_AF_OD))
 800078c:	683b      	ldr	r3, [r7, #0]
 800078e:	685b      	ldr	r3, [r3, #4]
      if((GPIO_Init->Mode == GPIO_MODE_OUTPUT_PP) || (GPIO_Init->Mode == GPIO_MODE_AF_PP) ||
 8000790:	2b11      	cmp	r3, #17
 8000792:	d003      	beq.n	800079c <HAL_GPIO_Init+0xd4>
         (GPIO_Init->Mode == GPIO_MODE_OUTPUT_OD) || (GPIO_Init->Mode == GPIO_MODE_AF_OD))
 8000794:	683b      	ldr	r3, [r7, #0]
 8000796:	685b      	ldr	r3, [r3, #4]
 8000798:	2b12      	cmp	r3, #18
 800079a:	d130      	bne.n	80007fe <HAL_GPIO_Init+0x136>
      {
        /* Check the Speed parameter */
        assert_param(IS_GPIO_SPEED(GPIO_Init->Speed));
        /* Configure the IO Speed */
        temp = GPIOx->OSPEEDR;
 800079c:	687b      	ldr	r3, [r7, #4]
 800079e:	689b      	ldr	r3, [r3, #8]
 80007a0:	613b      	str	r3, [r7, #16]
        temp &= ~(GPIO_OSPEEDER_OSPEEDR0 << (position * 2u));
 80007a2:	697b      	ldr	r3, [r7, #20]
 80007a4:	005b      	lsls	r3, r3, #1
 80007a6:	2203      	movs	r2, #3
 80007a8:	409a      	lsls	r2, r3
 80007aa:	0013      	movs	r3, r2
 80007ac:	43da      	mvns	r2, r3
 80007ae:	693b      	ldr	r3, [r7, #16]
 80007b0:	4013      	ands	r3, r2
 80007b2:	613b      	str	r3, [r7, #16]
        temp |= (GPIO_Init->Speed << (position * 2u));
 80007b4:	683b      	ldr	r3, [r7, #0]
 80007b6:	68da      	ldr	r2, [r3, #12]
 80007b8:	697b      	ldr	r3, [r7, #20]
 80007ba:	005b      	lsls	r3, r3, #1
 80007bc:	409a      	lsls	r2, r3
 80007be:	0013      	movs	r3, r2
 80007c0:	693a      	ldr	r2, [r7, #16]
 80007c2:	4313      	orrs	r3, r2
 80007c4:	613b      	str	r3, [r7, #16]
        GPIOx->OSPEEDR = temp;
 80007c6:	687b      	ldr	r3, [r7, #4]
 80007c8:	693a      	ldr	r2, [r7, #16]
 80007ca:	609a      	str	r2, [r3, #8]

        /* Configure the IO Output Type */
        temp = GPIOx->OTYPER;
 80007cc:	687b      	ldr	r3, [r7, #4]
 80007ce:	685b      	ldr	r3, [r3, #4]
 80007d0:	613b      	str	r3, [r7, #16]
        temp &= ~(GPIO_OTYPER_OT_0 << position) ;
 80007d2:	2201      	movs	r2, #1
 80007d4:	697b      	ldr	r3, [r7, #20]
 80007d6:	409a      	lsls	r2, r3
 80007d8:	0013      	movs	r3, r2
 80007da:	43da      	mvns	r2, r3
 80007dc:	693b      	ldr	r3, [r7, #16]
 80007de:	4013      	ands	r3, r2
 80007e0:	613b      	str	r3, [r7, #16]
        temp |= (((GPIO_Init->Mode & GPIO_OUTPUT_TYPE) >> 4u) << position);
 80007e2:	683b      	ldr	r3, [r7, #0]
 80007e4:	685b      	ldr	r3, [r3, #4]
 80007e6:	091b      	lsrs	r3, r3, #4
 80007e8:	2201      	movs	r2, #1
 80007ea:	401a      	ands	r2, r3
 80007ec:	697b      	ldr	r3, [r7, #20]
 80007ee:	409a      	lsls	r2, r3
 80007f0:	0013      	movs	r3, r2
 80007f2:	693a      	ldr	r2, [r7, #16]
 80007f4:	4313      	orrs	r3, r2
 80007f6:	613b      	str	r3, [r7, #16]
        GPIOx->OTYPER = temp;
 80007f8:	687b      	ldr	r3, [r7, #4]
 80007fa:	693a      	ldr	r2, [r7, #16]
 80007fc:	605a      	str	r2, [r3, #4]
      }

      /* Activate the Pull-up or Pull down resistor for the current IO */
      temp = GPIOx->PUPDR;
 80007fe:	687b      	ldr	r3, [r7, #4]
 8000800:	68db      	ldr	r3, [r3, #12]
 8000802:	613b      	str	r3, [r7, #16]
      temp &= ~(GPIO_PUPDR_PUPDR0 << (position * 2u));
 8000804:	697b      	ldr	r3, [r7, #20]
 8000806:	005b      	lsls	r3, r3, #1
 8000808:	2203      	movs	r2, #3
 800080a:	409a      	lsls	r2, r3
 800080c:	0013      	movs	r3, r2
 800080e:	43da      	mvns	r2, r3
 8000810:	693b      	ldr	r3, [r7, #16]
 8000812:	4013      	ands	r3, r2
 8000814:	613b      	str	r3, [r7, #16]
      temp |= ((GPIO_Init->Pull) << (position * 2u));
 8000816:	683b      	ldr	r3, [r7, #0]
 8000818:	689a      	ldr	r2, [r3, #8]
 800081a:	697b      	ldr	r3, [r7, #20]
 800081c:	005b      	lsls	r3, r3, #1
 800081e:	409a      	lsls	r2, r3
 8000820:	0013      	movs	r3, r2
 8000822:	693a      	ldr	r2, [r7, #16]
 8000824:	4313      	orrs	r3, r2
 8000826:	613b      	str	r3, [r7, #16]
      GPIOx->PUPDR = temp;
 8000828:	687b      	ldr	r3, [r7, #4]
 800082a:	693a      	ldr	r2, [r7, #16]
 800082c:	60da      	str	r2, [r3, #12]

      /*--------------------- EXTI Mode Configuration ------------------------*/
      /* Configure the External Interrupt or event for the current IO */
      if((GPIO_Init->Mode & EXTI_MODE) == EXTI_MODE)
 800082e:	683b      	ldr	r3, [r7, #0]
 8000830:	685a      	ldr	r2, [r3, #4]
 8000832:	2380      	movs	r3, #128	; 0x80
 8000834:	055b      	lsls	r3, r3, #21
 8000836:	4013      	ands	r3, r2
 8000838:	d100      	bne.n	800083c <HAL_GPIO_Init+0x174>
 800083a:	e09a      	b.n	8000972 <HAL_GPIO_Init+0x2aa>
      {
        /* Enable SYSCFG Clock */
        __HAL_RCC_SYSCFG_CLK_ENABLE();
 800083c:	4b54      	ldr	r3, [pc, #336]	; (8000990 <HAL_GPIO_Init+0x2c8>)
 800083e:	699a      	ldr	r2, [r3, #24]
 8000840:	4b53      	ldr	r3, [pc, #332]	; (8000990 <HAL_GPIO_Init+0x2c8>)
 8000842:	2101      	movs	r1, #1
 8000844:	430a      	orrs	r2, r1
 8000846:	619a      	str	r2, [r3, #24]
 8000848:	4b51      	ldr	r3, [pc, #324]	; (8000990 <HAL_GPIO_Init+0x2c8>)
 800084a:	699b      	ldr	r3, [r3, #24]
 800084c:	2201      	movs	r2, #1
 800084e:	4013      	ands	r3, r2
 8000850:	60bb      	str	r3, [r7, #8]
 8000852:	68bb      	ldr	r3, [r7, #8]

        temp = SYSCFG->EXTICR[position >> 2u];
 8000854:	4a4f      	ldr	r2, [pc, #316]	; (8000994 <HAL_GPIO_Init+0x2cc>)
 8000856:	697b      	ldr	r3, [r7, #20]
 8000858:	089b      	lsrs	r3, r3, #2
 800085a:	3302      	adds	r3, #2
 800085c:	009b      	lsls	r3, r3, #2
 800085e:	589b      	ldr	r3, [r3, r2]
 8000860:	613b      	str	r3, [r7, #16]
        temp &= ~(0x0FuL << (4u * (position & 0x03u)));
 8000862:	697b      	ldr	r3, [r7, #20]
 8000864:	2203      	movs	r2, #3
 8000866:	4013      	ands	r3, r2
 8000868:	009b      	lsls	r3, r3, #2
 800086a:	220f      	movs	r2, #15
 800086c:	409a      	lsls	r2, r3
 800086e:	0013      	movs	r3, r2
 8000870:	43da      	mvns	r2, r3
 8000872:	693b      	ldr	r3, [r7, #16]
 8000874:	4013      	ands	r3, r2
 8000876:	613b      	str	r3, [r7, #16]
        temp |= (GPIO_GET_INDEX(GPIOx) << (4u * (position & 0x03u)));
 8000878:	687a      	ldr	r2, [r7, #4]
 800087a:	2390      	movs	r3, #144	; 0x90
 800087c:	05db      	lsls	r3, r3, #23
 800087e:	429a      	cmp	r2, r3
 8000880:	d013      	beq.n	80008aa <HAL_GPIO_Init+0x1e2>
 8000882:	687b      	ldr	r3, [r7, #4]
 8000884:	4a44      	ldr	r2, [pc, #272]	; (8000998 <HAL_GPIO_Init+0x2d0>)
 8000886:	4293      	cmp	r3, r2
 8000888:	d00d      	beq.n	80008a6 <HAL_GPIO_Init+0x1de>
 800088a:	687b      	ldr	r3, [r7, #4]
 800088c:	4a43      	ldr	r2, [pc, #268]	; (800099c <HAL_GPIO_Init+0x2d4>)
 800088e:	4293      	cmp	r3, r2
 8000890:	d007      	beq.n	80008a2 <HAL_GPIO_Init+0x1da>
 8000892:	687b      	ldr	r3, [r7, #4]
 8000894:	4a42      	ldr	r2, [pc, #264]	; (80009a0 <HAL_GPIO_Init+0x2d8>)
 8000896:	4293      	cmp	r3, r2
 8000898:	d101      	bne.n	800089e <HAL_GPIO_Init+0x1d6>
 800089a:	2303      	movs	r3, #3
 800089c:	e006      	b.n	80008ac <HAL_GPIO_Init+0x1e4>
 800089e:	2305      	movs	r3, #5
 80008a0:	e004      	b.n	80008ac <HAL_GPIO_Init+0x1e4>
 80008a2:	2302      	movs	r3, #2
 80008a4:	e002      	b.n	80008ac <HAL_GPIO_Init+0x1e4>
 80008a6:	2301      	movs	r3, #1
 80008a8:	e000      	b.n	80008ac <HAL_GPIO_Init+0x1e4>
 80008aa:	2300      	movs	r3, #0
 80008ac:	697a      	ldr	r2, [r7, #20]
 80008ae:	2103      	movs	r1, #3
 80008b0:	400a      	ands	r2, r1
 80008b2:	0092      	lsls	r2, r2, #2
 80008b4:	4093      	lsls	r3, r2
 80008b6:	693a      	ldr	r2, [r7, #16]
 80008b8:	4313      	orrs	r3, r2
 80008ba:	613b      	str	r3, [r7, #16]
        SYSCFG->EXTICR[position >> 2u] = temp;
 80008bc:	4935      	ldr	r1, [pc, #212]	; (8000994 <HAL_GPIO_Init+0x2cc>)
 80008be:	697b      	ldr	r3, [r7, #20]
 80008c0:	089b      	lsrs	r3, r3, #2
 80008c2:	3302      	adds	r3, #2
 80008c4:	009b      	lsls	r3, r3, #2
 80008c6:	693a      	ldr	r2, [r7, #16]
 80008c8:	505a      	str	r2, [r3, r1]

        /* Clear EXTI line configuration */
        temp = EXTI->IMR;
 80008ca:	4b36      	ldr	r3, [pc, #216]	; (80009a4 <HAL_GPIO_Init+0x2dc>)
 80008cc:	681b      	ldr	r3, [r3, #0]
 80008ce:	613b      	str	r3, [r7, #16]
        temp &= ~(iocurrent);
 80008d0:	68fb      	ldr	r3, [r7, #12]
 80008d2:	43da      	mvns	r2, r3
 80008d4:	693b      	ldr	r3, [r7, #16]
 80008d6:	4013      	ands	r3, r2
 80008d8:	613b      	str	r3, [r7, #16]
        if((GPIO_Init->Mode & GPIO_MODE_IT) == GPIO_MODE_IT)
 80008da:	683b      	ldr	r3, [r7, #0]
 80008dc:	685a      	ldr	r2, [r3, #4]
 80008de:	2380      	movs	r3, #128	; 0x80
 80008e0:	025b      	lsls	r3, r3, #9
 80008e2:	4013      	ands	r3, r2
 80008e4:	d003      	beq.n	80008ee <HAL_GPIO_Init+0x226>
        {
          temp |= iocurrent;
 80008e6:	693a      	ldr	r2, [r7, #16]
 80008e8:	68fb      	ldr	r3, [r7, #12]
 80008ea:	4313      	orrs	r3, r2
 80008ec:	613b      	str	r3, [r7, #16]
        }
        EXTI->IMR = temp;
 80008ee:	4b2d      	ldr	r3, [pc, #180]	; (80009a4 <HAL_GPIO_Init+0x2dc>)
 80008f0:	693a      	ldr	r2, [r7, #16]
 80008f2:	601a      	str	r2, [r3, #0]

        temp = EXTI->EMR;
 80008f4:	4b2b      	ldr	r3, [pc, #172]	; (80009a4 <HAL_GPIO_Init+0x2dc>)
 80008f6:	685b      	ldr	r3, [r3, #4]
 80008f8:	613b      	str	r3, [r7, #16]
        temp &= ~(iocurrent);
 80008fa:	68fb      	ldr	r3, [r7, #12]
 80008fc:	43da      	mvns	r2, r3
 80008fe:	693b      	ldr	r3, [r7, #16]
 8000900:	4013      	ands	r3, r2
 8000902:	613b      	str	r3, [r7, #16]
        if((GPIO_Init->Mode & GPIO_MODE_EVT) == GPIO_MODE_EVT)
 8000904:	683b      	ldr	r3, [r7, #0]
 8000906:	685a      	ldr	r2, [r3, #4]
 8000908:	2380      	movs	r3, #128	; 0x80
 800090a:	029b      	lsls	r3, r3, #10
 800090c:	4013      	ands	r3, r2
 800090e:	d003      	beq.n	8000918 <HAL_GPIO_Init+0x250>
        {
          temp |= iocurrent;
 8000910:	693a      	ldr	r2, [r7, #16]
 8000912:	68fb      	ldr	r3, [r7, #12]
 8000914:	4313      	orrs	r3, r2
 8000916:	613b      	str	r3, [r7, #16]
        }
        EXTI->EMR = temp;
 8000918:	4b22      	ldr	r3, [pc, #136]	; (80009a4 <HAL_GPIO_Init+0x2dc>)
 800091a:	693a      	ldr	r2, [r7, #16]
 800091c:	605a      	str	r2, [r3, #4]

        /* Clear Rising Falling edge configuration */
        temp = EXTI->RTSR;
 800091e:	4b21      	ldr	r3, [pc, #132]	; (80009a4 <HAL_GPIO_Init+0x2dc>)
 8000920:	689b      	ldr	r3, [r3, #8]
 8000922:	613b      	str	r3, [r7, #16]
        temp &= ~(iocurrent);
 8000924:	68fb      	ldr	r3, [r7, #12]
 8000926:	43da      	mvns	r2, r3
 8000928:	693b      	ldr	r3, [r7, #16]
 800092a:	4013      	ands	r3, r2
 800092c:	613b      	str	r3, [r7, #16]
        if((GPIO_Init->Mode & RISING_EDGE) == RISING_EDGE)
 800092e:	683b      	ldr	r3, [r7, #0]
 8000930:	685a      	ldr	r2, [r3, #4]
 8000932:	2380      	movs	r3, #128	; 0x80
 8000934:	035b      	lsls	r3, r3, #13
 8000936:	4013      	ands	r3, r2
 8000938:	d003      	beq.n	8000942 <HAL_GPIO_Init+0x27a>
        {
          temp |= iocurrent;
 800093a:	693a      	ldr	r2, [r7, #16]
 800093c:	68fb      	ldr	r3, [r7, #12]
 800093e:	4313      	orrs	r3, r2
 8000940:	613b      	str	r3, [r7, #16]
        }
        EXTI->RTSR = temp;
 8000942:	4b18      	ldr	r3, [pc, #96]	; (80009a4 <HAL_GPIO_Init+0x2dc>)
 8000944:	693a      	ldr	r2, [r7, #16]
 8000946:	609a      	str	r2, [r3, #8]

        temp = EXTI->FTSR;
 8000948:	4b16      	ldr	r3, [pc, #88]	; (80009a4 <HAL_GPIO_Init+0x2dc>)
 800094a:	68db      	ldr	r3, [r3, #12]
 800094c:	613b      	str	r3, [r7, #16]
        temp &= ~(iocurrent);
 800094e:	68fb      	ldr	r3, [r7, #12]
 8000950:	43da      	mvns	r2, r3
 8000952:	693b      	ldr	r3, [r7, #16]
 8000954:	4013      	ands	r3, r2
 8000956:	613b      	str	r3, [r7, #16]
        if((GPIO_Init->Mode & FALLING_EDGE) == FALLING_EDGE)
 8000958:	683b      	ldr	r3, [r7, #0]
 800095a:	685a      	ldr	r2, [r3, #4]
 800095c:	2380      	movs	r3, #128	; 0x80
 800095e:	039b      	lsls	r3, r3, #14
 8000960:	4013      	ands	r3, r2
 8000962:	d003      	beq.n	800096c <HAL_GPIO_Init+0x2a4>
        {
          temp |= iocurrent;
 8000964:	693a      	ldr	r2, [r7, #16]
 8000966:	68fb      	ldr	r3, [r7, #12]
 8000968:	4313      	orrs	r3, r2
 800096a:	613b      	str	r3, [r7, #16]
        }
        EXTI->FTSR = temp;
 800096c:	4b0d      	ldr	r3, [pc, #52]	; (80009a4 <HAL_GPIO_Init+0x2dc>)
 800096e:	693a      	ldr	r2, [r7, #16]
 8000970:	60da      	str	r2, [r3, #12]
      }
    }

    position++;
 8000972:	697b      	ldr	r3, [r7, #20]
 8000974:	3301      	adds	r3, #1
 8000976:	617b      	str	r3, [r7, #20]
  while (((GPIO_Init->Pin) >> position) != 0x00u)
 8000978:	683b      	ldr	r3, [r7, #0]
 800097a:	681a      	ldr	r2, [r3, #0]
 800097c:	697b      	ldr	r3, [r7, #20]
 800097e:	40da      	lsrs	r2, r3
 8000980:	1e13      	subs	r3, r2, #0
 8000982:	d000      	beq.n	8000986 <HAL_GPIO_Init+0x2be>
 8000984:	e6a8      	b.n	80006d8 <HAL_GPIO_Init+0x10>
  } 
}
 8000986:	46c0      	nop			; (mov r8, r8)
 8000988:	46bd      	mov	sp, r7
 800098a:	b006      	add	sp, #24
 800098c:	bd80      	pop	{r7, pc}
 800098e:	46c0      	nop			; (mov r8, r8)
 8000990:	40021000 	.word	0x40021000
 8000994:	40010000 	.word	0x40010000
 8000998:	48000400 	.word	0x48000400
 800099c:	48000800 	.word	0x48000800
 80009a0:	48000c00 	.word	0x48000c00
 80009a4:	40010400 	.word	0x40010400

080009a8 <HAL_GPIO_ReadPin>:
  * @param  GPIO_Pin specifies the port bit to read.
  *         This parameter can be GPIO_PIN_x where x can be (0..15).
  * @retval The input port pin value.
  */
GPIO_PinState HAL_GPIO_ReadPin(GPIO_TypeDef* GPIOx, uint16_t GPIO_Pin)
{
 80009a8:	b580      	push	{r7, lr}
 80009aa:	b084      	sub	sp, #16
 80009ac:	af00      	add	r7, sp, #0
 80009ae:	6078      	str	r0, [r7, #4]
 80009b0:	000a      	movs	r2, r1
 80009b2:	1cbb      	adds	r3, r7, #2
 80009b4:	801a      	strh	r2, [r3, #0]
  GPIO_PinState bitstatus;

  /* Check the parameters */
  assert_param(IS_GPIO_PIN(GPIO_Pin));

  if ((GPIOx->IDR & GPIO_Pin) != (uint32_t)GPIO_PIN_RESET)
 80009b6:	687b      	ldr	r3, [r7, #4]
 80009b8:	691b      	ldr	r3, [r3, #16]
 80009ba:	1cba      	adds	r2, r7, #2
 80009bc:	8812      	ldrh	r2, [r2, #0]
 80009be:	4013      	ands	r3, r2
 80009c0:	d004      	beq.n	80009cc <HAL_GPIO_ReadPin+0x24>
  {
    bitstatus = GPIO_PIN_SET;
 80009c2:	230f      	movs	r3, #15
 80009c4:	18fb      	adds	r3, r7, r3
 80009c6:	2201      	movs	r2, #1
 80009c8:	701a      	strb	r2, [r3, #0]
 80009ca:	e003      	b.n	80009d4 <HAL_GPIO_ReadPin+0x2c>
  }
  else
  {
    bitstatus = GPIO_PIN_RESET;
 80009cc:	230f      	movs	r3, #15
 80009ce:	18fb      	adds	r3, r7, r3
 80009d0:	2200      	movs	r2, #0
 80009d2:	701a      	strb	r2, [r3, #0]
  }
  return bitstatus;
 80009d4:	230f      	movs	r3, #15
 80009d6:	18fb      	adds	r3, r7, r3
 80009d8:	781b      	ldrb	r3, [r3, #0]
  }
 80009da:	0018      	movs	r0, r3
 80009dc:	46bd      	mov	sp, r7
 80009de:	b004      	add	sp, #16
 80009e0:	bd80      	pop	{r7, pc}

080009e2 <HAL_GPIO_WritePin>:
  *            @arg GPIO_PIN_RESET: to clear the port pin
  *            @arg GPIO_PIN_SET: to set the port pin
  * @retval None
  */
void HAL_GPIO_WritePin(GPIO_TypeDef* GPIOx, uint16_t GPIO_Pin, GPIO_PinState PinState)
{
 80009e2:	b580      	push	{r7, lr}
 80009e4:	b082      	sub	sp, #8
 80009e6:	af00      	add	r7, sp, #0
 80009e8:	6078      	str	r0, [r7, #4]
 80009ea:	0008      	movs	r0, r1
 80009ec:	0011      	movs	r1, r2
 80009ee:	1cbb      	adds	r3, r7, #2
 80009f0:	1c02      	adds	r2, r0, #0
 80009f2:	801a      	strh	r2, [r3, #0]
 80009f4:	1c7b      	adds	r3, r7, #1
 80009f6:	1c0a      	adds	r2, r1, #0
 80009f8:	701a      	strb	r2, [r3, #0]
  /* Check the parameters */
  assert_param(IS_GPIO_PIN(GPIO_Pin));
  assert_param(IS_GPIO_PIN_ACTION(PinState));

  if (PinState != GPIO_PIN_RESET)
 80009fa:	1c7b      	adds	r3, r7, #1
 80009fc:	781b      	ldrb	r3, [r3, #0]
 80009fe:	2b00      	cmp	r3, #0
 8000a00:	d004      	beq.n	8000a0c <HAL_GPIO_WritePin+0x2a>
  {
    GPIOx->BSRR = (uint32_t)GPIO_Pin;
 8000a02:	1cbb      	adds	r3, r7, #2
 8000a04:	881a      	ldrh	r2, [r3, #0]
 8000a06:	687b      	ldr	r3, [r7, #4]
 8000a08:	619a      	str	r2, [r3, #24]
  }
  else
  {
    GPIOx->BRR = (uint32_t)GPIO_Pin;
  }
}
 8000a0a:	e003      	b.n	8000a14 <HAL_GPIO_WritePin+0x32>
    GPIOx->BRR = (uint32_t)GPIO_Pin;
 8000a0c:	1cbb      	adds	r3, r7, #2
 8000a0e:	881a      	ldrh	r2, [r3, #0]
 8000a10:	687b      	ldr	r3, [r7, #4]
 8000a12:	629a      	str	r2, [r3, #40]	; 0x28
}
 8000a14:	46c0      	nop			; (mov r8, r8)
 8000a16:	46bd      	mov	sp, r7
 8000a18:	b002      	add	sp, #8
 8000a1a:	bd80      	pop	{r7, pc}

08000a1c <HAL_RCC_OscConfig>:
  *         supported by this macro. User should request a transition to HSE Off
  *         first and then HSE On or HSE Bypass.
  * @retval HAL status
  */
HAL_StatusTypeDef HAL_RCC_OscConfig(RCC_OscInitTypeDef  *RCC_OscInitStruct)
{
 8000a1c:	b580      	push	{r7, lr}
 8000a1e:	b088      	sub	sp, #32
 8000a20:	af00      	add	r7, sp, #0
 8000a22:	6078      	str	r0, [r7, #4]
  uint32_t tickstart;
  uint32_t pll_config;
  uint32_t pll_config2;

  /* Check Null pointer */
  if(RCC_OscInitStruct == NULL)
 8000a24:	687b      	ldr	r3, [r7, #4]
 8000a26:	2b00      	cmp	r3, #0
 8000a28:	d101      	bne.n	8000a2e <HAL_RCC_OscConfig+0x12>
  {
    return HAL_ERROR;
 8000a2a:	2301      	movs	r3, #1
 8000a2c:	e303      	b.n	8001036 <HAL_RCC_OscConfig+0x61a>

  /* Check the parameters */
  assert_param(IS_RCC_OSCILLATORTYPE(RCC_OscInitStruct->OscillatorType));

  /*------------------------------- HSE Configuration ------------------------*/ 
  if(((RCC_OscInitStruct->OscillatorType) & RCC_OSCILLATORTYPE_HSE) == RCC_OSCILLATORTYPE_HSE)
 8000a2e:	687b      	ldr	r3, [r7, #4]
 8000a30:	681b      	ldr	r3, [r3, #0]
 8000a32:	2201      	movs	r2, #1
 8000a34:	4013      	ands	r3, r2
 8000a36:	d100      	bne.n	8000a3a <HAL_RCC_OscConfig+0x1e>
 8000a38:	e08d      	b.n	8000b56 <HAL_RCC_OscConfig+0x13a>
  {
    /* Check the parameters */
    assert_param(IS_RCC_HSE(RCC_OscInitStruct->HSEState));

    /* When the HSE is used as system clock or clock source for PLL in these cases it is not allowed to be disabled */
    if((__HAL_RCC_GET_SYSCLK_SOURCE() == RCC_SYSCLKSOURCE_STATUS_HSE) 
 8000a3a:	4bc4      	ldr	r3, [pc, #784]	; (8000d4c <HAL_RCC_OscConfig+0x330>)
 8000a3c:	685b      	ldr	r3, [r3, #4]
 8000a3e:	220c      	movs	r2, #12
 8000a40:	4013      	ands	r3, r2
 8000a42:	2b04      	cmp	r3, #4
 8000a44:	d00e      	beq.n	8000a64 <HAL_RCC_OscConfig+0x48>
       || ((__HAL_RCC_GET_SYSCLK_SOURCE() == RCC_SYSCLKSOURCE_STATUS_PLLCLK) && (__HAL_RCC_GET_PLL_OSCSOURCE() == RCC_PLLSOURCE_HSE)))
 8000a46:	4bc1      	ldr	r3, [pc, #772]	; (8000d4c <HAL_RCC_OscConfig+0x330>)
 8000a48:	685b      	ldr	r3, [r3, #4]
 8000a4a:	220c      	movs	r2, #12
 8000a4c:	4013      	ands	r3, r2
 8000a4e:	2b08      	cmp	r3, #8
 8000a50:	d116      	bne.n	8000a80 <HAL_RCC_OscConfig+0x64>
 8000a52:	4bbe      	ldr	r3, [pc, #760]	; (8000d4c <HAL_RCC_OscConfig+0x330>)
 8000a54:	685a      	ldr	r2, [r3, #4]
 8000a56:	2380      	movs	r3, #128	; 0x80
 8000a58:	025b      	lsls	r3, r3, #9
 8000a5a:	401a      	ands	r2, r3
 8000a5c:	2380      	movs	r3, #128	; 0x80
 8000a5e:	025b      	lsls	r3, r3, #9
 8000a60:	429a      	cmp	r2, r3
 8000a62:	d10d      	bne.n	8000a80 <HAL_RCC_OscConfig+0x64>
    {
      if((__HAL_RCC_GET_FLAG(RCC_FLAG_HSERDY) != RESET) && (RCC_OscInitStruct->HSEState == RCC_HSE_OFF))
 8000a64:	4bb9      	ldr	r3, [pc, #740]	; (8000d4c <HAL_RCC_OscConfig+0x330>)
 8000a66:	681a      	ldr	r2, [r3, #0]
 8000a68:	2380      	movs	r3, #128	; 0x80
 8000a6a:	029b      	lsls	r3, r3, #10
 8000a6c:	4013      	ands	r3, r2
 8000a6e:	d100      	bne.n	8000a72 <HAL_RCC_OscConfig+0x56>
 8000a70:	e070      	b.n	8000b54 <HAL_RCC_OscConfig+0x138>
 8000a72:	687b      	ldr	r3, [r7, #4]
 8000a74:	685b      	ldr	r3, [r3, #4]
 8000a76:	2b00      	cmp	r3, #0
 8000a78:	d000      	beq.n	8000a7c <HAL_RCC_OscConfig+0x60>
 8000a7a:	e06b      	b.n	8000b54 <HAL_RCC_OscConfig+0x138>
      {
        return HAL_ERROR;
 8000a7c:	2301      	movs	r3, #1
 8000a7e:	e2da      	b.n	8001036 <HAL_RCC_OscConfig+0x61a>
      }
    }
    else
    {
      /* Set the new HSE configuration ---------------------------------------*/
      __HAL_RCC_HSE_CONFIG(RCC_OscInitStruct->HSEState);
 8000a80:	687b      	ldr	r3, [r7, #4]
 8000a82:	685b      	ldr	r3, [r3, #4]
 8000a84:	2b01      	cmp	r3, #1
 8000a86:	d107      	bne.n	8000a98 <HAL_RCC_OscConfig+0x7c>
 8000a88:	4bb0      	ldr	r3, [pc, #704]	; (8000d4c <HAL_RCC_OscConfig+0x330>)
 8000a8a:	681a      	ldr	r2, [r3, #0]
 8000a8c:	4baf      	ldr	r3, [pc, #700]	; (8000d4c <HAL_RCC_OscConfig+0x330>)
 8000a8e:	2180      	movs	r1, #128	; 0x80
 8000a90:	0249      	lsls	r1, r1, #9
 8000a92:	430a      	orrs	r2, r1
 8000a94:	601a      	str	r2, [r3, #0]
 8000a96:	e02f      	b.n	8000af8 <HAL_RCC_OscConfig+0xdc>
 8000a98:	687b      	ldr	r3, [r7, #4]
 8000a9a:	685b      	ldr	r3, [r3, #4]
 8000a9c:	2b00      	cmp	r3, #0
 8000a9e:	d10c      	bne.n	8000aba <HAL_RCC_OscConfig+0x9e>
 8000aa0:	4baa      	ldr	r3, [pc, #680]	; (8000d4c <HAL_RCC_OscConfig+0x330>)
 8000aa2:	681a      	ldr	r2, [r3, #0]
 8000aa4:	4ba9      	ldr	r3, [pc, #676]	; (8000d4c <HAL_RCC_OscConfig+0x330>)
 8000aa6:	49aa      	ldr	r1, [pc, #680]	; (8000d50 <HAL_RCC_OscConfig+0x334>)
 8000aa8:	400a      	ands	r2, r1
 8000aaa:	601a      	str	r2, [r3, #0]
 8000aac:	4ba7      	ldr	r3, [pc, #668]	; (8000d4c <HAL_RCC_OscConfig+0x330>)
 8000aae:	681a      	ldr	r2, [r3, #0]
 8000ab0:	4ba6      	ldr	r3, [pc, #664]	; (8000d4c <HAL_RCC_OscConfig+0x330>)
 8000ab2:	49a8      	ldr	r1, [pc, #672]	; (8000d54 <HAL_RCC_OscConfig+0x338>)
 8000ab4:	400a      	ands	r2, r1
 8000ab6:	601a      	str	r2, [r3, #0]
 8000ab8:	e01e      	b.n	8000af8 <HAL_RCC_OscConfig+0xdc>
 8000aba:	687b      	ldr	r3, [r7, #4]
 8000abc:	685b      	ldr	r3, [r3, #4]
 8000abe:	2b05      	cmp	r3, #5
 8000ac0:	d10e      	bne.n	8000ae0 <HAL_RCC_OscConfig+0xc4>
 8000ac2:	4ba2      	ldr	r3, [pc, #648]	; (8000d4c <HAL_RCC_OscConfig+0x330>)
 8000ac4:	681a      	ldr	r2, [r3, #0]
 8000ac6:	4ba1      	ldr	r3, [pc, #644]	; (8000d4c <HAL_RCC_OscConfig+0x330>)
 8000ac8:	2180      	movs	r1, #128	; 0x80
 8000aca:	02c9      	lsls	r1, r1, #11
 8000acc:	430a      	orrs	r2, r1
 8000ace:	601a      	str	r2, [r3, #0]
 8000ad0:	4b9e      	ldr	r3, [pc, #632]	; (8000d4c <HAL_RCC_OscConfig+0x330>)
 8000ad2:	681a      	ldr	r2, [r3, #0]
 8000ad4:	4b9d      	ldr	r3, [pc, #628]	; (8000d4c <HAL_RCC_OscConfig+0x330>)
 8000ad6:	2180      	movs	r1, #128	; 0x80
 8000ad8:	0249      	lsls	r1, r1, #9
 8000ada:	430a      	orrs	r2, r1
 8000adc:	601a      	str	r2, [r3, #0]
 8000ade:	e00b      	b.n	8000af8 <HAL_RCC_OscConfig+0xdc>
 8000ae0:	4b9a      	ldr	r3, [pc, #616]	; (8000d4c <HAL_RCC_OscConfig+0x330>)
 8000ae2:	681a      	ldr	r2, [r3, #0]
 8000ae4:	4b99      	ldr	r3, [pc, #612]	; (8000d4c <HAL_RCC_OscConfig+0x330>)
 8000ae6:	499a      	ldr	r1, [pc, #616]	; (8000d50 <HAL_RCC_OscConfig+0x334>)
 8000ae8:	400a      	ands	r2, r1
 8000aea:	601a      	str	r2, [r3, #0]
 8000aec:	4b97      	ldr	r3, [pc, #604]	; (8000d4c <HAL_RCC_OscConfig+0x330>)
 8000aee:	681a      	ldr	r2, [r3, #0]
 8000af0:	4b96      	ldr	r3, [pc, #600]	; (8000d4c <HAL_RCC_OscConfig+0x330>)
 8000af2:	4998      	ldr	r1, [pc, #608]	; (8000d54 <HAL_RCC_OscConfig+0x338>)
 8000af4:	400a      	ands	r2, r1
 8000af6:	601a      	str	r2, [r3, #0]
      

       /* Check the HSE State */
      if(RCC_OscInitStruct->HSEState != RCC_HSE_OFF)
 8000af8:	687b      	ldr	r3, [r7, #4]
 8000afa:	685b      	ldr	r3, [r3, #4]
 8000afc:	2b00      	cmp	r3, #0
 8000afe:	d014      	beq.n	8000b2a <HAL_RCC_OscConfig+0x10e>
      {
        /* Get Start Tick */
        tickstart = HAL_GetTick();
 8000b00:	f7ff fd24 	bl	800054c <HAL_GetTick>
 8000b04:	0003      	movs	r3, r0
 8000b06:	61bb      	str	r3, [r7, #24]
        
        /* Wait till HSE is ready */
        while(__HAL_RCC_GET_FLAG(RCC_FLAG_HSERDY) == RESET)
 8000b08:	e008      	b.n	8000b1c <HAL_RCC_OscConfig+0x100>
        {
          if((HAL_GetTick() - tickstart ) > HSE_TIMEOUT_VALUE)
 8000b0a:	f7ff fd1f 	bl	800054c <HAL_GetTick>
 8000b0e:	0002      	movs	r2, r0
 8000b10:	69bb      	ldr	r3, [r7, #24]
 8000b12:	1ad3      	subs	r3, r2, r3
 8000b14:	2b64      	cmp	r3, #100	; 0x64
 8000b16:	d901      	bls.n	8000b1c <HAL_RCC_OscConfig+0x100>
          {
            return HAL_TIMEOUT;
 8000b18:	2303      	movs	r3, #3
 8000b1a:	e28c      	b.n	8001036 <HAL_RCC_OscConfig+0x61a>
        while(__HAL_RCC_GET_FLAG(RCC_FLAG_HSERDY) == RESET)
 8000b1c:	4b8b      	ldr	r3, [pc, #556]	; (8000d4c <HAL_RCC_OscConfig+0x330>)
 8000b1e:	681a      	ldr	r2, [r3, #0]
 8000b20:	2380      	movs	r3, #128	; 0x80
 8000b22:	029b      	lsls	r3, r3, #10
 8000b24:	4013      	ands	r3, r2
 8000b26:	d0f0      	beq.n	8000b0a <HAL_RCC_OscConfig+0xee>
 8000b28:	e015      	b.n	8000b56 <HAL_RCC_OscConfig+0x13a>
        }
      }
      else
      {
        /* Get Start Tick */
        tickstart = HAL_GetTick();
 8000b2a:	f7ff fd0f 	bl	800054c <HAL_GetTick>
 8000b2e:	0003      	movs	r3, r0
 8000b30:	61bb      	str	r3, [r7, #24]
        
        /* Wait till HSE is disabled */
        while(__HAL_RCC_GET_FLAG(RCC_FLAG_HSERDY) != RESET)
 8000b32:	e008      	b.n	8000b46 <HAL_RCC_OscConfig+0x12a>
        {
           if((HAL_GetTick() - tickstart ) > HSE_TIMEOUT_VALUE)
 8000b34:	f7ff fd0a 	bl	800054c <HAL_GetTick>
 8000b38:	0002      	movs	r2, r0
 8000b3a:	69bb      	ldr	r3, [r7, #24]
 8000b3c:	1ad3      	subs	r3, r2, r3
 8000b3e:	2b64      	cmp	r3, #100	; 0x64
 8000b40:	d901      	bls.n	8000b46 <HAL_RCC_OscConfig+0x12a>
          {
            return HAL_TIMEOUT;
 8000b42:	2303      	movs	r3, #3
 8000b44:	e277      	b.n	8001036 <HAL_RCC_OscConfig+0x61a>
        while(__HAL_RCC_GET_FLAG(RCC_FLAG_HSERDY) != RESET)
 8000b46:	4b81      	ldr	r3, [pc, #516]	; (8000d4c <HAL_RCC_OscConfig+0x330>)
 8000b48:	681a      	ldr	r2, [r3, #0]
 8000b4a:	2380      	movs	r3, #128	; 0x80
 8000b4c:	029b      	lsls	r3, r3, #10
 8000b4e:	4013      	ands	r3, r2
 8000b50:	d1f0      	bne.n	8000b34 <HAL_RCC_OscConfig+0x118>
 8000b52:	e000      	b.n	8000b56 <HAL_RCC_OscConfig+0x13a>
      if((__HAL_RCC_GET_FLAG(RCC_FLAG_HSERDY) != RESET) && (RCC_OscInitStruct->HSEState == RCC_HSE_OFF))
 8000b54:	46c0      	nop			; (mov r8, r8)
        }
      }
    }
  }
  /*----------------------------- HSI Configuration --------------------------*/ 
  if(((RCC_OscInitStruct->OscillatorType) & RCC_OSCILLATORTYPE_HSI) == RCC_OSCILLATORTYPE_HSI)
 8000b56:	687b      	ldr	r3, [r7, #4]
 8000b58:	681b      	ldr	r3, [r3, #0]
 8000b5a:	2202      	movs	r2, #2
 8000b5c:	4013      	ands	r3, r2
 8000b5e:	d100      	bne.n	8000b62 <HAL_RCC_OscConfig+0x146>
 8000b60:	e069      	b.n	8000c36 <HAL_RCC_OscConfig+0x21a>
    /* Check the parameters */
    assert_param(IS_RCC_HSI(RCC_OscInitStruct->HSIState));
    assert_param(IS_RCC_CALIBRATION_VALUE(RCC_OscInitStruct->HSICalibrationValue));
    
    /* Check if HSI is used as system clock or as PLL source when PLL is selected as system clock */ 
    if((__HAL_RCC_GET_SYSCLK_SOURCE() == RCC_SYSCLKSOURCE_STATUS_HSI) 
 8000b62:	4b7a      	ldr	r3, [pc, #488]	; (8000d4c <HAL_RCC_OscConfig+0x330>)
 8000b64:	685b      	ldr	r3, [r3, #4]
 8000b66:	220c      	movs	r2, #12
 8000b68:	4013      	ands	r3, r2
 8000b6a:	d00b      	beq.n	8000b84 <HAL_RCC_OscConfig+0x168>
       || ((__HAL_RCC_GET_SYSCLK_SOURCE() == RCC_SYSCLKSOURCE_STATUS_PLLCLK) && (__HAL_RCC_GET_PLL_OSCSOURCE() == RCC_PLLSOURCE_HSI)))
 8000b6c:	4b77      	ldr	r3, [pc, #476]	; (8000d4c <HAL_RCC_OscConfig+0x330>)
 8000b6e:	685b      	ldr	r3, [r3, #4]
 8000b70:	220c      	movs	r2, #12
 8000b72:	4013      	ands	r3, r2
 8000b74:	2b08      	cmp	r3, #8
 8000b76:	d11c      	bne.n	8000bb2 <HAL_RCC_OscConfig+0x196>
 8000b78:	4b74      	ldr	r3, [pc, #464]	; (8000d4c <HAL_RCC_OscConfig+0x330>)
 8000b7a:	685a      	ldr	r2, [r3, #4]
 8000b7c:	2380      	movs	r3, #128	; 0x80
 8000b7e:	025b      	lsls	r3, r3, #9
 8000b80:	4013      	ands	r3, r2
 8000b82:	d116      	bne.n	8000bb2 <HAL_RCC_OscConfig+0x196>
    {
      /* When HSI is used as system clock it will not disabled */
      if((__HAL_RCC_GET_FLAG(RCC_FLAG_HSIRDY) != RESET) && (RCC_OscInitStruct->HSIState != RCC_HSI_ON))
 8000b84:	4b71      	ldr	r3, [pc, #452]	; (8000d4c <HAL_RCC_OscConfig+0x330>)
 8000b86:	681b      	ldr	r3, [r3, #0]
 8000b88:	2202      	movs	r2, #2
 8000b8a:	4013      	ands	r3, r2
 8000b8c:	d005      	beq.n	8000b9a <HAL_RCC_OscConfig+0x17e>
 8000b8e:	687b      	ldr	r3, [r7, #4]
 8000b90:	68db      	ldr	r3, [r3, #12]
 8000b92:	2b01      	cmp	r3, #1
 8000b94:	d001      	beq.n	8000b9a <HAL_RCC_OscConfig+0x17e>
      {
        return HAL_ERROR;
 8000b96:	2301      	movs	r3, #1
 8000b98:	e24d      	b.n	8001036 <HAL_RCC_OscConfig+0x61a>
      }
      /* Otherwise, just the calibration is allowed */
      else
      {
        /* Adjusts the Internal High Speed oscillator (HSI) calibration value.*/
        __HAL_RCC_HSI_CALIBRATIONVALUE_ADJUST(RCC_OscInitStruct->HSICalibrationValue);
 8000b9a:	4b6c      	ldr	r3, [pc, #432]	; (8000d4c <HAL_RCC_OscConfig+0x330>)
 8000b9c:	681b      	ldr	r3, [r3, #0]
 8000b9e:	22f8      	movs	r2, #248	; 0xf8
 8000ba0:	4393      	bics	r3, r2
 8000ba2:	0019      	movs	r1, r3
 8000ba4:	687b      	ldr	r3, [r7, #4]
 8000ba6:	691b      	ldr	r3, [r3, #16]
 8000ba8:	00da      	lsls	r2, r3, #3
 8000baa:	4b68      	ldr	r3, [pc, #416]	; (8000d4c <HAL_RCC_OscConfig+0x330>)
 8000bac:	430a      	orrs	r2, r1
 8000bae:	601a      	str	r2, [r3, #0]
      if((__HAL_RCC_GET_FLAG(RCC_FLAG_HSIRDY) != RESET) && (RCC_OscInitStruct->HSIState != RCC_HSI_ON))
 8000bb0:	e041      	b.n	8000c36 <HAL_RCC_OscConfig+0x21a>
      }
    }
    else
    {
      /* Check the HSI State */
      if(RCC_OscInitStruct->HSIState != RCC_HSI_OFF)
 8000bb2:	687b      	ldr	r3, [r7, #4]
 8000bb4:	68db      	ldr	r3, [r3, #12]
 8000bb6:	2b00      	cmp	r3, #0
 8000bb8:	d024      	beq.n	8000c04 <HAL_RCC_OscConfig+0x1e8>
      {
       /* Enable the Internal High Speed oscillator (HSI). */
        __HAL_RCC_HSI_ENABLE();
 8000bba:	4b64      	ldr	r3, [pc, #400]	; (8000d4c <HAL_RCC_OscConfig+0x330>)
 8000bbc:	681a      	ldr	r2, [r3, #0]
 8000bbe:	4b63      	ldr	r3, [pc, #396]	; (8000d4c <HAL_RCC_OscConfig+0x330>)
 8000bc0:	2101      	movs	r1, #1
 8000bc2:	430a      	orrs	r2, r1
 8000bc4:	601a      	str	r2, [r3, #0]
        
        /* Get Start Tick */
        tickstart = HAL_GetTick();
 8000bc6:	f7ff fcc1 	bl	800054c <HAL_GetTick>
 8000bca:	0003      	movs	r3, r0
 8000bcc:	61bb      	str	r3, [r7, #24]
        
        /* Wait till HSI is ready */
        while(__HAL_RCC_GET_FLAG(RCC_FLAG_HSIRDY) == RESET)
 8000bce:	e008      	b.n	8000be2 <HAL_RCC_OscConfig+0x1c6>
        {
          if((HAL_GetTick() - tickstart ) > HSI_TIMEOUT_VALUE)
 8000bd0:	f7ff fcbc 	bl	800054c <HAL_GetTick>
 8000bd4:	0002      	movs	r2, r0
 8000bd6:	69bb      	ldr	r3, [r7, #24]
 8000bd8:	1ad3      	subs	r3, r2, r3
 8000bda:	2b02      	cmp	r3, #2
 8000bdc:	d901      	bls.n	8000be2 <HAL_RCC_OscConfig+0x1c6>
          {
            return HAL_TIMEOUT;
 8000bde:	2303      	movs	r3, #3
 8000be0:	e229      	b.n	8001036 <HAL_RCC_OscConfig+0x61a>
        while(__HAL_RCC_GET_FLAG(RCC_FLAG_HSIRDY) == RESET)
 8000be2:	4b5a      	ldr	r3, [pc, #360]	; (8000d4c <HAL_RCC_OscConfig+0x330>)
 8000be4:	681b      	ldr	r3, [r3, #0]
 8000be6:	2202      	movs	r2, #2
 8000be8:	4013      	ands	r3, r2
 8000bea:	d0f1      	beq.n	8000bd0 <HAL_RCC_OscConfig+0x1b4>
          }
        }
                
        /* Adjusts the Internal High Speed oscillator (HSI) calibration value.*/
        __HAL_RCC_HSI_CALIBRATIONVALUE_ADJUST(RCC_OscInitStruct->HSICalibrationValue);
 8000bec:	4b57      	ldr	r3, [pc, #348]	; (8000d4c <HAL_RCC_OscConfig+0x330>)
 8000bee:	681b      	ldr	r3, [r3, #0]
 8000bf0:	22f8      	movs	r2, #248	; 0xf8
 8000bf2:	4393      	bics	r3, r2
 8000bf4:	0019      	movs	r1, r3
 8000bf6:	687b      	ldr	r3, [r7, #4]
 8000bf8:	691b      	ldr	r3, [r3, #16]
 8000bfa:	00da      	lsls	r2, r3, #3
 8000bfc:	4b53      	ldr	r3, [pc, #332]	; (8000d4c <HAL_RCC_OscConfig+0x330>)
 8000bfe:	430a      	orrs	r2, r1
 8000c00:	601a      	str	r2, [r3, #0]
 8000c02:	e018      	b.n	8000c36 <HAL_RCC_OscConfig+0x21a>
      }
      else
      {
        /* Disable the Internal High Speed oscillator (HSI). */
        __HAL_RCC_HSI_DISABLE();
 8000c04:	4b51      	ldr	r3, [pc, #324]	; (8000d4c <HAL_RCC_OscConfig+0x330>)
 8000c06:	681a      	ldr	r2, [r3, #0]
 8000c08:	4b50      	ldr	r3, [pc, #320]	; (8000d4c <HAL_RCC_OscConfig+0x330>)
 8000c0a:	2101      	movs	r1, #1
 8000c0c:	438a      	bics	r2, r1
 8000c0e:	601a      	str	r2, [r3, #0]
        
        /* Get Start Tick */
        tickstart = HAL_GetTick();
 8000c10:	f7ff fc9c 	bl	800054c <HAL_GetTick>
 8000c14:	0003      	movs	r3, r0
 8000c16:	61bb      	str	r3, [r7, #24]
        
        /* Wait till HSI is disabled */
        while(__HAL_RCC_GET_FLAG(RCC_FLAG_HSIRDY) != RESET)
 8000c18:	e008      	b.n	8000c2c <HAL_RCC_OscConfig+0x210>
        {
          if((HAL_GetTick() - tickstart ) > HSI_TIMEOUT_VALUE)
 8000c1a:	f7ff fc97 	bl	800054c <HAL_GetTick>
 8000c1e:	0002      	movs	r2, r0
 8000c20:	69bb      	ldr	r3, [r7, #24]
 8000c22:	1ad3      	subs	r3, r2, r3
 8000c24:	2b02      	cmp	r3, #2
 8000c26:	d901      	bls.n	8000c2c <HAL_RCC_OscConfig+0x210>
          {
            return HAL_TIMEOUT;
 8000c28:	2303      	movs	r3, #3
 8000c2a:	e204      	b.n	8001036 <HAL_RCC_OscConfig+0x61a>
        while(__HAL_RCC_GET_FLAG(RCC_FLAG_HSIRDY) != RESET)
 8000c2c:	4b47      	ldr	r3, [pc, #284]	; (8000d4c <HAL_RCC_OscConfig+0x330>)
 8000c2e:	681b      	ldr	r3, [r3, #0]
 8000c30:	2202      	movs	r2, #2
 8000c32:	4013      	ands	r3, r2
 8000c34:	d1f1      	bne.n	8000c1a <HAL_RCC_OscConfig+0x1fe>
        }
      }
    }
  }
  /*------------------------------ LSI Configuration -------------------------*/ 
  if(((RCC_OscInitStruct->OscillatorType) & RCC_OSCILLATORTYPE_LSI) == RCC_OSCILLATORTYPE_LSI)
 8000c36:	687b      	ldr	r3, [r7, #4]
 8000c38:	681b      	ldr	r3, [r3, #0]
 8000c3a:	2208      	movs	r2, #8
 8000c3c:	4013      	ands	r3, r2
 8000c3e:	d036      	beq.n	8000cae <HAL_RCC_OscConfig+0x292>
  {
    /* Check the parameters */
    assert_param(IS_RCC_LSI(RCC_OscInitStruct->LSIState));
    
    /* Check the LSI State */
    if(RCC_OscInitStruct->LSIState != RCC_LSI_OFF)
 8000c40:	687b      	ldr	r3, [r7, #4]
 8000c42:	69db      	ldr	r3, [r3, #28]
 8000c44:	2b00      	cmp	r3, #0
 8000c46:	d019      	beq.n	8000c7c <HAL_RCC_OscConfig+0x260>
    {
      /* Enable the Internal Low Speed oscillator (LSI). */
      __HAL_RCC_LSI_ENABLE();
 8000c48:	4b40      	ldr	r3, [pc, #256]	; (8000d4c <HAL_RCC_OscConfig+0x330>)
 8000c4a:	6a5a      	ldr	r2, [r3, #36]	; 0x24
 8000c4c:	4b3f      	ldr	r3, [pc, #252]	; (8000d4c <HAL_RCC_OscConfig+0x330>)
 8000c4e:	2101      	movs	r1, #1
 8000c50:	430a      	orrs	r2, r1
 8000c52:	625a      	str	r2, [r3, #36]	; 0x24
      
      /* Get Start Tick */
      tickstart = HAL_GetTick();
 8000c54:	f7ff fc7a 	bl	800054c <HAL_GetTick>
 8000c58:	0003      	movs	r3, r0
 8000c5a:	61bb      	str	r3, [r7, #24]
      
      /* Wait till LSI is ready */  
      while(__HAL_RCC_GET_FLAG(RCC_FLAG_LSIRDY) == RESET)
 8000c5c:	e008      	b.n	8000c70 <HAL_RCC_OscConfig+0x254>
      {
        if((HAL_GetTick() - tickstart ) > LSI_TIMEOUT_VALUE)
 8000c5e:	f7ff fc75 	bl	800054c <HAL_GetTick>
 8000c62:	0002      	movs	r2, r0
 8000c64:	69bb      	ldr	r3, [r7, #24]
 8000c66:	1ad3      	subs	r3, r2, r3
 8000c68:	2b02      	cmp	r3, #2
 8000c6a:	d901      	bls.n	8000c70 <HAL_RCC_OscConfig+0x254>
        {
          return HAL_TIMEOUT;
 8000c6c:	2303      	movs	r3, #3
 8000c6e:	e1e2      	b.n	8001036 <HAL_RCC_OscConfig+0x61a>
      while(__HAL_RCC_GET_FLAG(RCC_FLAG_LSIRDY) == RESET)
 8000c70:	4b36      	ldr	r3, [pc, #216]	; (8000d4c <HAL_RCC_OscConfig+0x330>)
 8000c72:	6a5b      	ldr	r3, [r3, #36]	; 0x24
 8000c74:	2202      	movs	r2, #2
 8000c76:	4013      	ands	r3, r2
 8000c78:	d0f1      	beq.n	8000c5e <HAL_RCC_OscConfig+0x242>
 8000c7a:	e018      	b.n	8000cae <HAL_RCC_OscConfig+0x292>
      }
    }
    else
    {
      /* Disable the Internal Low Speed oscillator (LSI). */
      __HAL_RCC_LSI_DISABLE();
 8000c7c:	4b33      	ldr	r3, [pc, #204]	; (8000d4c <HAL_RCC_OscConfig+0x330>)
 8000c7e:	6a5a      	ldr	r2, [r3, #36]	; 0x24
 8000c80:	4b32      	ldr	r3, [pc, #200]	; (8000d4c <HAL_RCC_OscConfig+0x330>)
 8000c82:	2101      	movs	r1, #1
 8000c84:	438a      	bics	r2, r1
 8000c86:	625a      	str	r2, [r3, #36]	; 0x24
      
      /* Get Start Tick */
      tickstart = HAL_GetTick();
 8000c88:	f7ff fc60 	bl	800054c <HAL_GetTick>
 8000c8c:	0003      	movs	r3, r0
 8000c8e:	61bb      	str	r3, [r7, #24]
      
      /* Wait till LSI is disabled */  
      while(__HAL_RCC_GET_FLAG(RCC_FLAG_LSIRDY) != RESET)
 8000c90:	e008      	b.n	8000ca4 <HAL_RCC_OscConfig+0x288>
      {
        if((HAL_GetTick() - tickstart ) > LSI_TIMEOUT_VALUE)
 8000c92:	f7ff fc5b 	bl	800054c <HAL_GetTick>
 8000c96:	0002      	movs	r2, r0
 8000c98:	69bb      	ldr	r3, [r7, #24]
 8000c9a:	1ad3      	subs	r3, r2, r3
 8000c9c:	2b02      	cmp	r3, #2
 8000c9e:	d901      	bls.n	8000ca4 <HAL_RCC_OscConfig+0x288>
        {
          return HAL_TIMEOUT;
 8000ca0:	2303      	movs	r3, #3
 8000ca2:	e1c8      	b.n	8001036 <HAL_RCC_OscConfig+0x61a>
      while(__HAL_RCC_GET_FLAG(RCC_FLAG_LSIRDY) != RESET)
 8000ca4:	4b29      	ldr	r3, [pc, #164]	; (8000d4c <HAL_RCC_OscConfig+0x330>)
 8000ca6:	6a5b      	ldr	r3, [r3, #36]	; 0x24
 8000ca8:	2202      	movs	r2, #2
 8000caa:	4013      	ands	r3, r2
 8000cac:	d1f1      	bne.n	8000c92 <HAL_RCC_OscConfig+0x276>
        }
      }
    }
  }
  /*------------------------------ LSE Configuration -------------------------*/ 
  if(((RCC_OscInitStruct->OscillatorType) & RCC_OSCILLATORTYPE_LSE) == RCC_OSCILLATORTYPE_LSE)
 8000cae:	687b      	ldr	r3, [r7, #4]
 8000cb0:	681b      	ldr	r3, [r3, #0]
 8000cb2:	2204      	movs	r2, #4
 8000cb4:	4013      	ands	r3, r2
 8000cb6:	d100      	bne.n	8000cba <HAL_RCC_OscConfig+0x29e>
 8000cb8:	e0b6      	b.n	8000e28 <HAL_RCC_OscConfig+0x40c>
  {
    FlagStatus       pwrclkchanged = RESET;
 8000cba:	231f      	movs	r3, #31
 8000cbc:	18fb      	adds	r3, r7, r3
 8000cbe:	2200      	movs	r2, #0
 8000cc0:	701a      	strb	r2, [r3, #0]
    /* Check the parameters */
    assert_param(IS_RCC_LSE(RCC_OscInitStruct->LSEState));

    /* Update LSE configuration in Backup Domain control register    */
    /* Requires to enable write access to Backup Domain of necessary */
    if(__HAL_RCC_PWR_IS_CLK_DISABLED())
 8000cc2:	4b22      	ldr	r3, [pc, #136]	; (8000d4c <HAL_RCC_OscConfig+0x330>)
 8000cc4:	69da      	ldr	r2, [r3, #28]
 8000cc6:	2380      	movs	r3, #128	; 0x80
 8000cc8:	055b      	lsls	r3, r3, #21
 8000cca:	4013      	ands	r3, r2
 8000ccc:	d111      	bne.n	8000cf2 <HAL_RCC_OscConfig+0x2d6>
    {
      __HAL_RCC_PWR_CLK_ENABLE();
 8000cce:	4b1f      	ldr	r3, [pc, #124]	; (8000d4c <HAL_RCC_OscConfig+0x330>)
 8000cd0:	69da      	ldr	r2, [r3, #28]
 8000cd2:	4b1e      	ldr	r3, [pc, #120]	; (8000d4c <HAL_RCC_OscConfig+0x330>)
 8000cd4:	2180      	movs	r1, #128	; 0x80
 8000cd6:	0549      	lsls	r1, r1, #21
 8000cd8:	430a      	orrs	r2, r1
 8000cda:	61da      	str	r2, [r3, #28]
 8000cdc:	4b1b      	ldr	r3, [pc, #108]	; (8000d4c <HAL_RCC_OscConfig+0x330>)
 8000cde:	69da      	ldr	r2, [r3, #28]
 8000ce0:	2380      	movs	r3, #128	; 0x80
 8000ce2:	055b      	lsls	r3, r3, #21
 8000ce4:	4013      	ands	r3, r2
 8000ce6:	60fb      	str	r3, [r7, #12]
 8000ce8:	68fb      	ldr	r3, [r7, #12]
      pwrclkchanged = SET;
 8000cea:	231f      	movs	r3, #31
 8000cec:	18fb      	adds	r3, r7, r3
 8000cee:	2201      	movs	r2, #1
 8000cf0:	701a      	strb	r2, [r3, #0]
    }
    
    if(HAL_IS_BIT_CLR(PWR->CR, PWR_CR_DBP))
 8000cf2:	4b19      	ldr	r3, [pc, #100]	; (8000d58 <HAL_RCC_OscConfig+0x33c>)
 8000cf4:	681a      	ldr	r2, [r3, #0]
 8000cf6:	2380      	movs	r3, #128	; 0x80
 8000cf8:	005b      	lsls	r3, r3, #1
 8000cfa:	4013      	ands	r3, r2
 8000cfc:	d11a      	bne.n	8000d34 <HAL_RCC_OscConfig+0x318>
    {
      /* Enable write access to Backup domain */
      SET_BIT(PWR->CR, PWR_CR_DBP);
 8000cfe:	4b16      	ldr	r3, [pc, #88]	; (8000d58 <HAL_RCC_OscConfig+0x33c>)
 8000d00:	681a      	ldr	r2, [r3, #0]
 8000d02:	4b15      	ldr	r3, [pc, #84]	; (8000d58 <HAL_RCC_OscConfig+0x33c>)
 8000d04:	2180      	movs	r1, #128	; 0x80
 8000d06:	0049      	lsls	r1, r1, #1
 8000d08:	430a      	orrs	r2, r1
 8000d0a:	601a      	str	r2, [r3, #0]
      
      /* Wait for Backup domain Write protection disable */
      tickstart = HAL_GetTick();
 8000d0c:	f7ff fc1e 	bl	800054c <HAL_GetTick>
 8000d10:	0003      	movs	r3, r0
 8000d12:	61bb      	str	r3, [r7, #24]

      while(HAL_IS_BIT_CLR(PWR->CR, PWR_CR_DBP))
 8000d14:	e008      	b.n	8000d28 <HAL_RCC_OscConfig+0x30c>
      {
        if((HAL_GetTick() - tickstart) > RCC_DBP_TIMEOUT_VALUE)
 8000d16:	f7ff fc19 	bl	800054c <HAL_GetTick>
 8000d1a:	0002      	movs	r2, r0
 8000d1c:	69bb      	ldr	r3, [r7, #24]
 8000d1e:	1ad3      	subs	r3, r2, r3
 8000d20:	2b64      	cmp	r3, #100	; 0x64
 8000d22:	d901      	bls.n	8000d28 <HAL_RCC_OscConfig+0x30c>
        {
          return HAL_TIMEOUT;
 8000d24:	2303      	movs	r3, #3
 8000d26:	e186      	b.n	8001036 <HAL_RCC_OscConfig+0x61a>
      while(HAL_IS_BIT_CLR(PWR->CR, PWR_CR_DBP))
 8000d28:	4b0b      	ldr	r3, [pc, #44]	; (8000d58 <HAL_RCC_OscConfig+0x33c>)
 8000d2a:	681a      	ldr	r2, [r3, #0]
 8000d2c:	2380      	movs	r3, #128	; 0x80
 8000d2e:	005b      	lsls	r3, r3, #1
 8000d30:	4013      	ands	r3, r2
 8000d32:	d0f0      	beq.n	8000d16 <HAL_RCC_OscConfig+0x2fa>
        }
      }
    }

    /* Set the new LSE configuration -----------------------------------------*/
    __HAL_RCC_LSE_CONFIG(RCC_OscInitStruct->LSEState);
 8000d34:	687b      	ldr	r3, [r7, #4]
 8000d36:	689b      	ldr	r3, [r3, #8]
 8000d38:	2b01      	cmp	r3, #1
 8000d3a:	d10f      	bne.n	8000d5c <HAL_RCC_OscConfig+0x340>
 8000d3c:	4b03      	ldr	r3, [pc, #12]	; (8000d4c <HAL_RCC_OscConfig+0x330>)
 8000d3e:	6a1a      	ldr	r2, [r3, #32]
 8000d40:	4b02      	ldr	r3, [pc, #8]	; (8000d4c <HAL_RCC_OscConfig+0x330>)
 8000d42:	2101      	movs	r1, #1
 8000d44:	430a      	orrs	r2, r1
 8000d46:	621a      	str	r2, [r3, #32]
 8000d48:	e036      	b.n	8000db8 <HAL_RCC_OscConfig+0x39c>
 8000d4a:	46c0      	nop			; (mov r8, r8)
 8000d4c:	40021000 	.word	0x40021000
 8000d50:	fffeffff 	.word	0xfffeffff
 8000d54:	fffbffff 	.word	0xfffbffff
 8000d58:	40007000 	.word	0x40007000
 8000d5c:	687b      	ldr	r3, [r7, #4]
 8000d5e:	689b      	ldr	r3, [r3, #8]
 8000d60:	2b00      	cmp	r3, #0
 8000d62:	d10c      	bne.n	8000d7e <HAL_RCC_OscConfig+0x362>
 8000d64:	4bb6      	ldr	r3, [pc, #728]	; (8001040 <HAL_RCC_OscConfig+0x624>)
 8000d66:	6a1a      	ldr	r2, [r3, #32]
 8000d68:	4bb5      	ldr	r3, [pc, #724]	; (8001040 <HAL_RCC_OscConfig+0x624>)
 8000d6a:	2101      	movs	r1, #1
 8000d6c:	438a      	bics	r2, r1
 8000d6e:	621a      	str	r2, [r3, #32]
 8000d70:	4bb3      	ldr	r3, [pc, #716]	; (8001040 <HAL_RCC_OscConfig+0x624>)
 8000d72:	6a1a      	ldr	r2, [r3, #32]
 8000d74:	4bb2      	ldr	r3, [pc, #712]	; (8001040 <HAL_RCC_OscConfig+0x624>)
 8000d76:	2104      	movs	r1, #4
 8000d78:	438a      	bics	r2, r1
 8000d7a:	621a      	str	r2, [r3, #32]
 8000d7c:	e01c      	b.n	8000db8 <HAL_RCC_OscConfig+0x39c>
 8000d7e:	687b      	ldr	r3, [r7, #4]
 8000d80:	689b      	ldr	r3, [r3, #8]
 8000d82:	2b05      	cmp	r3, #5
 8000d84:	d10c      	bne.n	8000da0 <HAL_RCC_OscConfig+0x384>
 8000d86:	4bae      	ldr	r3, [pc, #696]	; (8001040 <HAL_RCC_OscConfig+0x624>)
 8000d88:	6a1a      	ldr	r2, [r3, #32]
 8000d8a:	4bad      	ldr	r3, [pc, #692]	; (8001040 <HAL_RCC_OscConfig+0x624>)
 8000d8c:	2104      	movs	r1, #4
 8000d8e:	430a      	orrs	r2, r1
 8000d90:	621a      	str	r2, [r3, #32]
 8000d92:	4bab      	ldr	r3, [pc, #684]	; (8001040 <HAL_RCC_OscConfig+0x624>)
 8000d94:	6a1a      	ldr	r2, [r3, #32]
 8000d96:	4baa      	ldr	r3, [pc, #680]	; (8001040 <HAL_RCC_OscConfig+0x624>)
 8000d98:	2101      	movs	r1, #1
 8000d9a:	430a      	orrs	r2, r1
 8000d9c:	621a      	str	r2, [r3, #32]
 8000d9e:	e00b      	b.n	8000db8 <HAL_RCC_OscConfig+0x39c>
 8000da0:	4ba7      	ldr	r3, [pc, #668]	; (8001040 <HAL_RCC_OscConfig+0x624>)
 8000da2:	6a1a      	ldr	r2, [r3, #32]
 8000da4:	4ba6      	ldr	r3, [pc, #664]	; (8001040 <HAL_RCC_OscConfig+0x624>)
 8000da6:	2101      	movs	r1, #1
 8000da8:	438a      	bics	r2, r1
 8000daa:	621a      	str	r2, [r3, #32]
 8000dac:	4ba4      	ldr	r3, [pc, #656]	; (8001040 <HAL_RCC_OscConfig+0x624>)
 8000dae:	6a1a      	ldr	r2, [r3, #32]
 8000db0:	4ba3      	ldr	r3, [pc, #652]	; (8001040 <HAL_RCC_OscConfig+0x624>)
 8000db2:	2104      	movs	r1, #4
 8000db4:	438a      	bics	r2, r1
 8000db6:	621a      	str	r2, [r3, #32]
    /* Check the LSE State */
    if(RCC_OscInitStruct->LSEState != RCC_LSE_OFF)
 8000db8:	687b      	ldr	r3, [r7, #4]
 8000dba:	689b      	ldr	r3, [r3, #8]
 8000dbc:	2b00      	cmp	r3, #0
 8000dbe:	d014      	beq.n	8000dea <HAL_RCC_OscConfig+0x3ce>
    {
      /* Get Start Tick */
      tickstart = HAL_GetTick();
 8000dc0:	f7ff fbc4 	bl	800054c <HAL_GetTick>
 8000dc4:	0003      	movs	r3, r0
 8000dc6:	61bb      	str	r3, [r7, #24]
      
      /* Wait till LSE is ready */  
      while(__HAL_RCC_GET_FLAG(RCC_FLAG_LSERDY) == RESET)
 8000dc8:	e009      	b.n	8000dde <HAL_RCC_OscConfig+0x3c2>
      {
        if((HAL_GetTick() - tickstart ) > RCC_LSE_TIMEOUT_VALUE)
 8000dca:	f7ff fbbf 	bl	800054c <HAL_GetTick>
 8000dce:	0002      	movs	r2, r0
 8000dd0:	69bb      	ldr	r3, [r7, #24]
 8000dd2:	1ad3      	subs	r3, r2, r3
 8000dd4:	4a9b      	ldr	r2, [pc, #620]	; (8001044 <HAL_RCC_OscConfig+0x628>)
 8000dd6:	4293      	cmp	r3, r2
 8000dd8:	d901      	bls.n	8000dde <HAL_RCC_OscConfig+0x3c2>
        {
          return HAL_TIMEOUT;
 8000dda:	2303      	movs	r3, #3
 8000ddc:	e12b      	b.n	8001036 <HAL_RCC_OscConfig+0x61a>
      while(__HAL_RCC_GET_FLAG(RCC_FLAG_LSERDY) == RESET)
 8000dde:	4b98      	ldr	r3, [pc, #608]	; (8001040 <HAL_RCC_OscConfig+0x624>)
 8000de0:	6a1b      	ldr	r3, [r3, #32]
 8000de2:	2202      	movs	r2, #2
 8000de4:	4013      	ands	r3, r2
 8000de6:	d0f0      	beq.n	8000dca <HAL_RCC_OscConfig+0x3ae>
 8000de8:	e013      	b.n	8000e12 <HAL_RCC_OscConfig+0x3f6>
      }
    }
    else
    {
      /* Get Start Tick */
      tickstart = HAL_GetTick();
 8000dea:	f7ff fbaf 	bl	800054c <HAL_GetTick>
 8000dee:	0003      	movs	r3, r0
 8000df0:	61bb      	str	r3, [r7, #24]
      
      /* Wait till LSE is disabled */  
      while(__HAL_RCC_GET_FLAG(RCC_FLAG_LSERDY) != RESET)
 8000df2:	e009      	b.n	8000e08 <HAL_RCC_OscConfig+0x3ec>
      {
        if((HAL_GetTick() - tickstart ) > RCC_LSE_TIMEOUT_VALUE)
 8000df4:	f7ff fbaa 	bl	800054c <HAL_GetTick>
 8000df8:	0002      	movs	r2, r0
 8000dfa:	69bb      	ldr	r3, [r7, #24]
 8000dfc:	1ad3      	subs	r3, r2, r3
 8000dfe:	4a91      	ldr	r2, [pc, #580]	; (8001044 <HAL_RCC_OscConfig+0x628>)
 8000e00:	4293      	cmp	r3, r2
 8000e02:	d901      	bls.n	8000e08 <HAL_RCC_OscConfig+0x3ec>
        {
          return HAL_TIMEOUT;
 8000e04:	2303      	movs	r3, #3
 8000e06:	e116      	b.n	8001036 <HAL_RCC_OscConfig+0x61a>
      while(__HAL_RCC_GET_FLAG(RCC_FLAG_LSERDY) != RESET)
 8000e08:	4b8d      	ldr	r3, [pc, #564]	; (8001040 <HAL_RCC_OscConfig+0x624>)
 8000e0a:	6a1b      	ldr	r3, [r3, #32]
 8000e0c:	2202      	movs	r2, #2
 8000e0e:	4013      	ands	r3, r2
 8000e10:	d1f0      	bne.n	8000df4 <HAL_RCC_OscConfig+0x3d8>
        }
      }
    }

    /* Require to disable power clock if necessary */
    if(pwrclkchanged == SET)
 8000e12:	231f      	movs	r3, #31
 8000e14:	18fb      	adds	r3, r7, r3
 8000e16:	781b      	ldrb	r3, [r3, #0]
 8000e18:	2b01      	cmp	r3, #1
 8000e1a:	d105      	bne.n	8000e28 <HAL_RCC_OscConfig+0x40c>
    {
      __HAL_RCC_PWR_CLK_DISABLE();
 8000e1c:	4b88      	ldr	r3, [pc, #544]	; (8001040 <HAL_RCC_OscConfig+0x624>)
 8000e1e:	69da      	ldr	r2, [r3, #28]
 8000e20:	4b87      	ldr	r3, [pc, #540]	; (8001040 <HAL_RCC_OscConfig+0x624>)
 8000e22:	4989      	ldr	r1, [pc, #548]	; (8001048 <HAL_RCC_OscConfig+0x62c>)
 8000e24:	400a      	ands	r2, r1
 8000e26:	61da      	str	r2, [r3, #28]
    }
  }

  /*----------------------------- HSI14 Configuration --------------------------*/
  if(((RCC_OscInitStruct->OscillatorType) & RCC_OSCILLATORTYPE_HSI14) == RCC_OSCILLATORTYPE_HSI14)
 8000e28:	687b      	ldr	r3, [r7, #4]
 8000e2a:	681b      	ldr	r3, [r3, #0]
 8000e2c:	2210      	movs	r2, #16
 8000e2e:	4013      	ands	r3, r2
 8000e30:	d063      	beq.n	8000efa <HAL_RCC_OscConfig+0x4de>
    /* Check the parameters */
    assert_param(IS_RCC_HSI14(RCC_OscInitStruct->HSI14State));
    assert_param(IS_RCC_CALIBRATION_VALUE(RCC_OscInitStruct->HSI14CalibrationValue));

    /* Check the HSI14 State */
    if(RCC_OscInitStruct->HSI14State == RCC_HSI14_ON)
 8000e32:	687b      	ldr	r3, [r7, #4]
 8000e34:	695b      	ldr	r3, [r3, #20]
 8000e36:	2b01      	cmp	r3, #1
 8000e38:	d12a      	bne.n	8000e90 <HAL_RCC_OscConfig+0x474>
    {
      /* Disable ADC control of the Internal High Speed oscillator HSI14 */
      __HAL_RCC_HSI14ADC_DISABLE();
 8000e3a:	4b81      	ldr	r3, [pc, #516]	; (8001040 <HAL_RCC_OscConfig+0x624>)
 8000e3c:	6b5a      	ldr	r2, [r3, #52]	; 0x34
 8000e3e:	4b80      	ldr	r3, [pc, #512]	; (8001040 <HAL_RCC_OscConfig+0x624>)
 8000e40:	2104      	movs	r1, #4
 8000e42:	430a      	orrs	r2, r1
 8000e44:	635a      	str	r2, [r3, #52]	; 0x34

      /* Enable the Internal High Speed oscillator (HSI). */
      __HAL_RCC_HSI14_ENABLE();
 8000e46:	4b7e      	ldr	r3, [pc, #504]	; (8001040 <HAL_RCC_OscConfig+0x624>)
 8000e48:	6b5a      	ldr	r2, [r3, #52]	; 0x34
 8000e4a:	4b7d      	ldr	r3, [pc, #500]	; (8001040 <HAL_RCC_OscConfig+0x624>)
 8000e4c:	2101      	movs	r1, #1
 8000e4e:	430a      	orrs	r2, r1
 8000e50:	635a      	str	r2, [r3, #52]	; 0x34

      /* Get Start Tick */
      tickstart = HAL_GetTick();
 8000e52:	f7ff fb7b 	bl	800054c <HAL_GetTick>
 8000e56:	0003      	movs	r3, r0
 8000e58:	61bb      	str	r3, [r7, #24]
      
      /* Wait till HSI is ready */  
      while(__HAL_RCC_GET_FLAG(RCC_FLAG_HSI14RDY) == RESET)
 8000e5a:	e008      	b.n	8000e6e <HAL_RCC_OscConfig+0x452>
      {
        if((HAL_GetTick() - tickstart) > HSI14_TIMEOUT_VALUE)
 8000e5c:	f7ff fb76 	bl	800054c <HAL_GetTick>
 8000e60:	0002      	movs	r2, r0
 8000e62:	69bb      	ldr	r3, [r7, #24]
 8000e64:	1ad3      	subs	r3, r2, r3
 8000e66:	2b02      	cmp	r3, #2
 8000e68:	d901      	bls.n	8000e6e <HAL_RCC_OscConfig+0x452>
        {
          return HAL_TIMEOUT;
 8000e6a:	2303      	movs	r3, #3
 8000e6c:	e0e3      	b.n	8001036 <HAL_RCC_OscConfig+0x61a>
      while(__HAL_RCC_GET_FLAG(RCC_FLAG_HSI14RDY) == RESET)
 8000e6e:	4b74      	ldr	r3, [pc, #464]	; (8001040 <HAL_RCC_OscConfig+0x624>)
 8000e70:	6b5b      	ldr	r3, [r3, #52]	; 0x34
 8000e72:	2202      	movs	r2, #2
 8000e74:	4013      	ands	r3, r2
 8000e76:	d0f1      	beq.n	8000e5c <HAL_RCC_OscConfig+0x440>
        }      
      } 

      /* Adjusts the Internal High Speed oscillator 14Mhz (HSI14) calibration value. */
      __HAL_RCC_HSI14_CALIBRATIONVALUE_ADJUST(RCC_OscInitStruct->HSI14CalibrationValue);
 8000e78:	4b71      	ldr	r3, [pc, #452]	; (8001040 <HAL_RCC_OscConfig+0x624>)
 8000e7a:	6b5b      	ldr	r3, [r3, #52]	; 0x34
 8000e7c:	22f8      	movs	r2, #248	; 0xf8
 8000e7e:	4393      	bics	r3, r2
 8000e80:	0019      	movs	r1, r3
 8000e82:	687b      	ldr	r3, [r7, #4]
 8000e84:	699b      	ldr	r3, [r3, #24]
 8000e86:	00da      	lsls	r2, r3, #3
 8000e88:	4b6d      	ldr	r3, [pc, #436]	; (8001040 <HAL_RCC_OscConfig+0x624>)
 8000e8a:	430a      	orrs	r2, r1
 8000e8c:	635a      	str	r2, [r3, #52]	; 0x34
 8000e8e:	e034      	b.n	8000efa <HAL_RCC_OscConfig+0x4de>
    }
    else if(RCC_OscInitStruct->HSI14State == RCC_HSI14_ADC_CONTROL)
 8000e90:	687b      	ldr	r3, [r7, #4]
 8000e92:	695b      	ldr	r3, [r3, #20]
 8000e94:	3305      	adds	r3, #5
 8000e96:	d111      	bne.n	8000ebc <HAL_RCC_OscConfig+0x4a0>
    {
      /* Enable ADC control of the Internal High Speed oscillator HSI14 */
      __HAL_RCC_HSI14ADC_ENABLE();
 8000e98:	4b69      	ldr	r3, [pc, #420]	; (8001040 <HAL_RCC_OscConfig+0x624>)
 8000e9a:	6b5a      	ldr	r2, [r3, #52]	; 0x34
 8000e9c:	4b68      	ldr	r3, [pc, #416]	; (8001040 <HAL_RCC_OscConfig+0x624>)
 8000e9e:	2104      	movs	r1, #4
 8000ea0:	438a      	bics	r2, r1
 8000ea2:	635a      	str	r2, [r3, #52]	; 0x34

      /* Adjusts the Internal High Speed oscillator 14Mhz (HSI14) calibration value. */
      __HAL_RCC_HSI14_CALIBRATIONVALUE_ADJUST(RCC_OscInitStruct->HSI14CalibrationValue);
 8000ea4:	4b66      	ldr	r3, [pc, #408]	; (8001040 <HAL_RCC_OscConfig+0x624>)
 8000ea6:	6b5b      	ldr	r3, [r3, #52]	; 0x34
 8000ea8:	22f8      	movs	r2, #248	; 0xf8
 8000eaa:	4393      	bics	r3, r2
 8000eac:	0019      	movs	r1, r3
 8000eae:	687b      	ldr	r3, [r7, #4]
 8000eb0:	699b      	ldr	r3, [r3, #24]
 8000eb2:	00da      	lsls	r2, r3, #3
 8000eb4:	4b62      	ldr	r3, [pc, #392]	; (8001040 <HAL_RCC_OscConfig+0x624>)
 8000eb6:	430a      	orrs	r2, r1
 8000eb8:	635a      	str	r2, [r3, #52]	; 0x34
 8000eba:	e01e      	b.n	8000efa <HAL_RCC_OscConfig+0x4de>
    }
    else
    {
      /* Disable ADC control of the Internal High Speed oscillator HSI14 */
      __HAL_RCC_HSI14ADC_DISABLE();
 8000ebc:	4b60      	ldr	r3, [pc, #384]	; (8001040 <HAL_RCC_OscConfig+0x624>)
 8000ebe:	6b5a      	ldr	r2, [r3, #52]	; 0x34
 8000ec0:	4b5f      	ldr	r3, [pc, #380]	; (8001040 <HAL_RCC_OscConfig+0x624>)
 8000ec2:	2104      	movs	r1, #4
 8000ec4:	430a      	orrs	r2, r1
 8000ec6:	635a      	str	r2, [r3, #52]	; 0x34

      /* Disable the Internal High Speed oscillator (HSI). */
      __HAL_RCC_HSI14_DISABLE();
 8000ec8:	4b5d      	ldr	r3, [pc, #372]	; (8001040 <HAL_RCC_OscConfig+0x624>)
 8000eca:	6b5a      	ldr	r2, [r3, #52]	; 0x34
 8000ecc:	4b5c      	ldr	r3, [pc, #368]	; (8001040 <HAL_RCC_OscConfig+0x624>)
 8000ece:	2101      	movs	r1, #1
 8000ed0:	438a      	bics	r2, r1
 8000ed2:	635a      	str	r2, [r3, #52]	; 0x34

      /* Get Start Tick */
      tickstart = HAL_GetTick();
 8000ed4:	f7ff fb3a 	bl	800054c <HAL_GetTick>
 8000ed8:	0003      	movs	r3, r0
 8000eda:	61bb      	str	r3, [r7, #24]
      
      /* Wait till HSI is ready */  
      while(__HAL_RCC_GET_FLAG(RCC_FLAG_HSI14RDY) != RESET)
 8000edc:	e008      	b.n	8000ef0 <HAL_RCC_OscConfig+0x4d4>
      {
        if((HAL_GetTick() - tickstart) > HSI14_TIMEOUT_VALUE)
 8000ede:	f7ff fb35 	bl	800054c <HAL_GetTick>
 8000ee2:	0002      	movs	r2, r0
 8000ee4:	69bb      	ldr	r3, [r7, #24]
 8000ee6:	1ad3      	subs	r3, r2, r3
 8000ee8:	2b02      	cmp	r3, #2
 8000eea:	d901      	bls.n	8000ef0 <HAL_RCC_OscConfig+0x4d4>
        {
          return HAL_TIMEOUT;
 8000eec:	2303      	movs	r3, #3
 8000eee:	e0a2      	b.n	8001036 <HAL_RCC_OscConfig+0x61a>
      while(__HAL_RCC_GET_FLAG(RCC_FLAG_HSI14RDY) != RESET)
 8000ef0:	4b53      	ldr	r3, [pc, #332]	; (8001040 <HAL_RCC_OscConfig+0x624>)
 8000ef2:	6b5b      	ldr	r3, [r3, #52]	; 0x34
 8000ef4:	2202      	movs	r2, #2
 8000ef6:	4013      	ands	r3, r2
 8000ef8:	d1f1      	bne.n	8000ede <HAL_RCC_OscConfig+0x4c2>
#endif /* RCC_HSI48_SUPPORT */
       
  /*-------------------------------- PLL Configuration -----------------------*/
  /* Check the parameters */
  assert_param(IS_RCC_PLL(RCC_OscInitStruct->PLL.PLLState));
  if ((RCC_OscInitStruct->PLL.PLLState) != RCC_PLL_NONE)
 8000efa:	687b      	ldr	r3, [r7, #4]
 8000efc:	6a1b      	ldr	r3, [r3, #32]
 8000efe:	2b00      	cmp	r3, #0
 8000f00:	d100      	bne.n	8000f04 <HAL_RCC_OscConfig+0x4e8>
 8000f02:	e097      	b.n	8001034 <HAL_RCC_OscConfig+0x618>
  {
    /* Check if the PLL is used as system clock or not */
    if(__HAL_RCC_GET_SYSCLK_SOURCE() != RCC_SYSCLKSOURCE_STATUS_PLLCLK)
 8000f04:	4b4e      	ldr	r3, [pc, #312]	; (8001040 <HAL_RCC_OscConfig+0x624>)
 8000f06:	685b      	ldr	r3, [r3, #4]
 8000f08:	220c      	movs	r2, #12
 8000f0a:	4013      	ands	r3, r2
 8000f0c:	2b08      	cmp	r3, #8
 8000f0e:	d100      	bne.n	8000f12 <HAL_RCC_OscConfig+0x4f6>
 8000f10:	e06b      	b.n	8000fea <HAL_RCC_OscConfig+0x5ce>
    { 
      if((RCC_OscInitStruct->PLL.PLLState) == RCC_PLL_ON)
 8000f12:	687b      	ldr	r3, [r7, #4]
 8000f14:	6a1b      	ldr	r3, [r3, #32]
 8000f16:	2b02      	cmp	r3, #2
 8000f18:	d14c      	bne.n	8000fb4 <HAL_RCC_OscConfig+0x598>
        assert_param(IS_RCC_PLLSOURCE(RCC_OscInitStruct->PLL.PLLSource));
        assert_param(IS_RCC_PLL_MUL(RCC_OscInitStruct->PLL.PLLMUL));
        assert_param(IS_RCC_PREDIV(RCC_OscInitStruct->PLL.PREDIV));
  
        /* Disable the main PLL. */
        __HAL_RCC_PLL_DISABLE();
 8000f1a:	4b49      	ldr	r3, [pc, #292]	; (8001040 <HAL_RCC_OscConfig+0x624>)
 8000f1c:	681a      	ldr	r2, [r3, #0]
 8000f1e:	4b48      	ldr	r3, [pc, #288]	; (8001040 <HAL_RCC_OscConfig+0x624>)
 8000f20:	494a      	ldr	r1, [pc, #296]	; (800104c <HAL_RCC_OscConfig+0x630>)
 8000f22:	400a      	ands	r2, r1
 8000f24:	601a      	str	r2, [r3, #0]
        
        /* Get Start Tick */
        tickstart = HAL_GetTick();
 8000f26:	f7ff fb11 	bl	800054c <HAL_GetTick>
 8000f2a:	0003      	movs	r3, r0
 8000f2c:	61bb      	str	r3, [r7, #24]
        
        /* Wait till PLL is disabled */
        while(__HAL_RCC_GET_FLAG(RCC_FLAG_PLLRDY)  != RESET)
 8000f2e:	e008      	b.n	8000f42 <HAL_RCC_OscConfig+0x526>
        {
          if((HAL_GetTick() - tickstart ) > PLL_TIMEOUT_VALUE)
 8000f30:	f7ff fb0c 	bl	800054c <HAL_GetTick>
 8000f34:	0002      	movs	r2, r0
 8000f36:	69bb      	ldr	r3, [r7, #24]
 8000f38:	1ad3      	subs	r3, r2, r3
 8000f3a:	2b02      	cmp	r3, #2
 8000f3c:	d901      	bls.n	8000f42 <HAL_RCC_OscConfig+0x526>
          {
            return HAL_TIMEOUT;
 8000f3e:	2303      	movs	r3, #3
 8000f40:	e079      	b.n	8001036 <HAL_RCC_OscConfig+0x61a>
        while(__HAL_RCC_GET_FLAG(RCC_FLAG_PLLRDY)  != RESET)
 8000f42:	4b3f      	ldr	r3, [pc, #252]	; (8001040 <HAL_RCC_OscConfig+0x624>)
 8000f44:	681a      	ldr	r2, [r3, #0]
 8000f46:	2380      	movs	r3, #128	; 0x80
 8000f48:	049b      	lsls	r3, r3, #18
 8000f4a:	4013      	ands	r3, r2
 8000f4c:	d1f0      	bne.n	8000f30 <HAL_RCC_OscConfig+0x514>
          }
        }

        /* Configure the main PLL clock source, predivider and multiplication factor. */
        __HAL_RCC_PLL_CONFIG(RCC_OscInitStruct->PLL.PLLSource,
 8000f4e:	4b3c      	ldr	r3, [pc, #240]	; (8001040 <HAL_RCC_OscConfig+0x624>)
 8000f50:	6adb      	ldr	r3, [r3, #44]	; 0x2c
 8000f52:	220f      	movs	r2, #15
 8000f54:	4393      	bics	r3, r2
 8000f56:	0019      	movs	r1, r3
 8000f58:	687b      	ldr	r3, [r7, #4]
 8000f5a:	6ada      	ldr	r2, [r3, #44]	; 0x2c
 8000f5c:	4b38      	ldr	r3, [pc, #224]	; (8001040 <HAL_RCC_OscConfig+0x624>)
 8000f5e:	430a      	orrs	r2, r1
 8000f60:	62da      	str	r2, [r3, #44]	; 0x2c
 8000f62:	4b37      	ldr	r3, [pc, #220]	; (8001040 <HAL_RCC_OscConfig+0x624>)
 8000f64:	685b      	ldr	r3, [r3, #4]
 8000f66:	4a3a      	ldr	r2, [pc, #232]	; (8001050 <HAL_RCC_OscConfig+0x634>)
 8000f68:	4013      	ands	r3, r2
 8000f6a:	0019      	movs	r1, r3
 8000f6c:	687b      	ldr	r3, [r7, #4]
 8000f6e:	6a9a      	ldr	r2, [r3, #40]	; 0x28
 8000f70:	687b      	ldr	r3, [r7, #4]
 8000f72:	6a5b      	ldr	r3, [r3, #36]	; 0x24
 8000f74:	431a      	orrs	r2, r3
 8000f76:	4b32      	ldr	r3, [pc, #200]	; (8001040 <HAL_RCC_OscConfig+0x624>)
 8000f78:	430a      	orrs	r2, r1
 8000f7a:	605a      	str	r2, [r3, #4]
                             RCC_OscInitStruct->PLL.PREDIV,
                             RCC_OscInitStruct->PLL.PLLMUL);
        /* Enable the main PLL. */
        __HAL_RCC_PLL_ENABLE();
 8000f7c:	4b30      	ldr	r3, [pc, #192]	; (8001040 <HAL_RCC_OscConfig+0x624>)
 8000f7e:	681a      	ldr	r2, [r3, #0]
 8000f80:	4b2f      	ldr	r3, [pc, #188]	; (8001040 <HAL_RCC_OscConfig+0x624>)
 8000f82:	2180      	movs	r1, #128	; 0x80
 8000f84:	0449      	lsls	r1, r1, #17
 8000f86:	430a      	orrs	r2, r1
 8000f88:	601a      	str	r2, [r3, #0]
        
        /* Get Start Tick */
        tickstart = HAL_GetTick();
 8000f8a:	f7ff fadf 	bl	800054c <HAL_GetTick>
 8000f8e:	0003      	movs	r3, r0
 8000f90:	61bb      	str	r3, [r7, #24]
        
        /* Wait till PLL is ready */
        while(__HAL_RCC_GET_FLAG(RCC_FLAG_PLLRDY)  == RESET)
 8000f92:	e008      	b.n	8000fa6 <HAL_RCC_OscConfig+0x58a>
        {
          if((HAL_GetTick() - tickstart ) > PLL_TIMEOUT_VALUE)
 8000f94:	f7ff fada 	bl	800054c <HAL_GetTick>
 8000f98:	0002      	movs	r2, r0
 8000f9a:	69bb      	ldr	r3, [r7, #24]
 8000f9c:	1ad3      	subs	r3, r2, r3
 8000f9e:	2b02      	cmp	r3, #2
 8000fa0:	d901      	bls.n	8000fa6 <HAL_RCC_OscConfig+0x58a>
          {
            return HAL_TIMEOUT;
 8000fa2:	2303      	movs	r3, #3
 8000fa4:	e047      	b.n	8001036 <HAL_RCC_OscConfig+0x61a>
        while(__HAL_RCC_GET_FLAG(RCC_FLAG_PLLRDY)  == RESET)
 8000fa6:	4b26      	ldr	r3, [pc, #152]	; (8001040 <HAL_RCC_OscConfig+0x624>)
 8000fa8:	681a      	ldr	r2, [r3, #0]
 8000faa:	2380      	movs	r3, #128	; 0x80
 8000fac:	049b      	lsls	r3, r3, #18
 8000fae:	4013      	ands	r3, r2
 8000fb0:	d0f0      	beq.n	8000f94 <HAL_RCC_OscConfig+0x578>
 8000fb2:	e03f      	b.n	8001034 <HAL_RCC_OscConfig+0x618>
        }
      }
      else
      {
        /* Disable the main PLL. */
        __HAL_RCC_PLL_DISABLE();
 8000fb4:	4b22      	ldr	r3, [pc, #136]	; (8001040 <HAL_RCC_OscConfig+0x624>)
 8000fb6:	681a      	ldr	r2, [r3, #0]
 8000fb8:	4b21      	ldr	r3, [pc, #132]	; (8001040 <HAL_RCC_OscConfig+0x624>)
 8000fba:	4924      	ldr	r1, [pc, #144]	; (800104c <HAL_RCC_OscConfig+0x630>)
 8000fbc:	400a      	ands	r2, r1
 8000fbe:	601a      	str	r2, [r3, #0]
 
        /* Get Start Tick */
        tickstart = HAL_GetTick();
 8000fc0:	f7ff fac4 	bl	800054c <HAL_GetTick>
 8000fc4:	0003      	movs	r3, r0
 8000fc6:	61bb      	str	r3, [r7, #24]
        
        /* Wait till PLL is disabled */  
        while(__HAL_RCC_GET_FLAG(RCC_FLAG_PLLRDY)  != RESET)
 8000fc8:	e008      	b.n	8000fdc <HAL_RCC_OscConfig+0x5c0>
        {
          if((HAL_GetTick() - tickstart ) > PLL_TIMEOUT_VALUE)
 8000fca:	f7ff fabf 	bl	800054c <HAL_GetTick>
 8000fce:	0002      	movs	r2, r0
 8000fd0:	69bb      	ldr	r3, [r7, #24]
 8000fd2:	1ad3      	subs	r3, r2, r3
 8000fd4:	2b02      	cmp	r3, #2
 8000fd6:	d901      	bls.n	8000fdc <HAL_RCC_OscConfig+0x5c0>
          {
            return HAL_TIMEOUT;
 8000fd8:	2303      	movs	r3, #3
 8000fda:	e02c      	b.n	8001036 <HAL_RCC_OscConfig+0x61a>
        while(__HAL_RCC_GET_FLAG(RCC_FLAG_PLLRDY)  != RESET)
 8000fdc:	4b18      	ldr	r3, [pc, #96]	; (8001040 <HAL_RCC_OscConfig+0x624>)
 8000fde:	681a      	ldr	r2, [r3, #0]
 8000fe0:	2380      	movs	r3, #128	; 0x80
 8000fe2:	049b      	lsls	r3, r3, #18
 8000fe4:	4013      	ands	r3, r2
 8000fe6:	d1f0      	bne.n	8000fca <HAL_RCC_OscConfig+0x5ae>
 8000fe8:	e024      	b.n	8001034 <HAL_RCC_OscConfig+0x618>
      }
    }
    else
    {
      /* Check if there is a request to disable the PLL used as System clock source */
      if((RCC_OscInitStruct->PLL.PLLState) == RCC_PLL_OFF)
 8000fea:	687b      	ldr	r3, [r7, #4]
 8000fec:	6a1b      	ldr	r3, [r3, #32]
 8000fee:	2b01      	cmp	r3, #1
 8000ff0:	d101      	bne.n	8000ff6 <HAL_RCC_OscConfig+0x5da>
      {
        return HAL_ERROR;
 8000ff2:	2301      	movs	r3, #1
 8000ff4:	e01f      	b.n	8001036 <HAL_RCC_OscConfig+0x61a>
      }
      else
      {
        /* Do not return HAL_ERROR if request repeats the current configuration */
        pll_config  = RCC->CFGR;
 8000ff6:	4b12      	ldr	r3, [pc, #72]	; (8001040 <HAL_RCC_OscConfig+0x624>)
 8000ff8:	685b      	ldr	r3, [r3, #4]
 8000ffa:	617b      	str	r3, [r7, #20]
        pll_config2 = RCC->CFGR2;
 8000ffc:	4b10      	ldr	r3, [pc, #64]	; (8001040 <HAL_RCC_OscConfig+0x624>)
 8000ffe:	6adb      	ldr	r3, [r3, #44]	; 0x2c
 8001000:	613b      	str	r3, [r7, #16]
        if((READ_BIT(pll_config,  RCC_CFGR_PLLSRC)  != RCC_OscInitStruct->PLL.PLLSource) ||
 8001002:	697a      	ldr	r2, [r7, #20]
 8001004:	2380      	movs	r3, #128	; 0x80
 8001006:	025b      	lsls	r3, r3, #9
 8001008:	401a      	ands	r2, r3
 800100a:	687b      	ldr	r3, [r7, #4]
 800100c:	6a5b      	ldr	r3, [r3, #36]	; 0x24
 800100e:	429a      	cmp	r2, r3
 8001010:	d10e      	bne.n	8001030 <HAL_RCC_OscConfig+0x614>
           (READ_BIT(pll_config2, RCC_CFGR2_PREDIV) != RCC_OscInitStruct->PLL.PREDIV)    ||
 8001012:	693b      	ldr	r3, [r7, #16]
 8001014:	220f      	movs	r2, #15
 8001016:	401a      	ands	r2, r3
 8001018:	687b      	ldr	r3, [r7, #4]
 800101a:	6adb      	ldr	r3, [r3, #44]	; 0x2c
        if((READ_BIT(pll_config,  RCC_CFGR_PLLSRC)  != RCC_OscInitStruct->PLL.PLLSource) ||
 800101c:	429a      	cmp	r2, r3
 800101e:	d107      	bne.n	8001030 <HAL_RCC_OscConfig+0x614>
           (READ_BIT(pll_config,  RCC_CFGR_PLLMUL)  != RCC_OscInitStruct->PLL.PLLMUL))
 8001020:	697a      	ldr	r2, [r7, #20]
 8001022:	23f0      	movs	r3, #240	; 0xf0
 8001024:	039b      	lsls	r3, r3, #14
 8001026:	401a      	ands	r2, r3
 8001028:	687b      	ldr	r3, [r7, #4]
 800102a:	6a9b      	ldr	r3, [r3, #40]	; 0x28
           (READ_BIT(pll_config2, RCC_CFGR2_PREDIV) != RCC_OscInitStruct->PLL.PREDIV)    ||
 800102c:	429a      	cmp	r2, r3
 800102e:	d001      	beq.n	8001034 <HAL_RCC_OscConfig+0x618>
        {
          return HAL_ERROR;
 8001030:	2301      	movs	r3, #1
 8001032:	e000      	b.n	8001036 <HAL_RCC_OscConfig+0x61a>
        }
      }
    }
  }

  return HAL_OK;
 8001034:	2300      	movs	r3, #0
}
 8001036:	0018      	movs	r0, r3
 8001038:	46bd      	mov	sp, r7
 800103a:	b008      	add	sp, #32
 800103c:	bd80      	pop	{r7, pc}
 800103e:	46c0      	nop			; (mov r8, r8)
 8001040:	40021000 	.word	0x40021000
 8001044:	00001388 	.word	0x00001388
 8001048:	efffffff 	.word	0xefffffff
 800104c:	feffffff 	.word	0xfeffffff
 8001050:	ffc2ffff 	.word	0xffc2ffff

08001054 <HAL_RCC_ClockConfig>:
  *         You can use @ref HAL_RCC_GetClockConfig() function to know which clock is
  *         currently used as system clock source.
  * @retval HAL status
  */
HAL_StatusTypeDef HAL_RCC_ClockConfig(RCC_ClkInitTypeDef  *RCC_ClkInitStruct, uint32_t FLatency)
{
 8001054:	b580      	push	{r7, lr}
 8001056:	b084      	sub	sp, #16
 8001058:	af00      	add	r7, sp, #0
 800105a:	6078      	str	r0, [r7, #4]
 800105c:	6039      	str	r1, [r7, #0]
  uint32_t tickstart;

  /* Check Null pointer */
  if(RCC_ClkInitStruct == NULL)
 800105e:	687b      	ldr	r3, [r7, #4]
 8001060:	2b00      	cmp	r3, #0
 8001062:	d101      	bne.n	8001068 <HAL_RCC_ClockConfig+0x14>
  {
    return HAL_ERROR;
 8001064:	2301      	movs	r3, #1
 8001066:	e0b3      	b.n	80011d0 <HAL_RCC_ClockConfig+0x17c>
  /* To correctly read data from FLASH memory, the number of wait states (LATENCY) 
  must be correctly programmed according to the frequency of the CPU clock 
    (HCLK) of the device. */

  /* Increasing the number of wait states because of higher CPU frequency */
  if(FLatency > __HAL_FLASH_GET_LATENCY())
 8001068:	4b5b      	ldr	r3, [pc, #364]	; (80011d8 <HAL_RCC_ClockConfig+0x184>)
 800106a:	681b      	ldr	r3, [r3, #0]
 800106c:	2201      	movs	r2, #1
 800106e:	4013      	ands	r3, r2
 8001070:	683a      	ldr	r2, [r7, #0]
 8001072:	429a      	cmp	r2, r3
 8001074:	d911      	bls.n	800109a <HAL_RCC_ClockConfig+0x46>
  {    
    /* Program the new number of wait states to the LATENCY bits in the FLASH_ACR register */
    __HAL_FLASH_SET_LATENCY(FLatency);
 8001076:	4b58      	ldr	r3, [pc, #352]	; (80011d8 <HAL_RCC_ClockConfig+0x184>)
 8001078:	681b      	ldr	r3, [r3, #0]
 800107a:	2201      	movs	r2, #1
 800107c:	4393      	bics	r3, r2
 800107e:	0019      	movs	r1, r3
 8001080:	4b55      	ldr	r3, [pc, #340]	; (80011d8 <HAL_RCC_ClockConfig+0x184>)
 8001082:	683a      	ldr	r2, [r7, #0]
 8001084:	430a      	orrs	r2, r1
 8001086:	601a      	str	r2, [r3, #0]
    
    /* Check that the new number of wait states is taken into account to access the Flash
    memory by reading the FLASH_ACR register */
    if(__HAL_FLASH_GET_LATENCY() != FLatency)
 8001088:	4b53      	ldr	r3, [pc, #332]	; (80011d8 <HAL_RCC_ClockConfig+0x184>)
 800108a:	681b      	ldr	r3, [r3, #0]
 800108c:	2201      	movs	r2, #1
 800108e:	4013      	ands	r3, r2
 8001090:	683a      	ldr	r2, [r7, #0]
 8001092:	429a      	cmp	r2, r3
 8001094:	d001      	beq.n	800109a <HAL_RCC_ClockConfig+0x46>
    {
      return HAL_ERROR;
 8001096:	2301      	movs	r3, #1
 8001098:	e09a      	b.n	80011d0 <HAL_RCC_ClockConfig+0x17c>
    }
  }

  /*-------------------------- HCLK Configuration --------------------------*/
  if(((RCC_ClkInitStruct->ClockType) & RCC_CLOCKTYPE_HCLK) == RCC_CLOCKTYPE_HCLK)
 800109a:	687b      	ldr	r3, [r7, #4]
 800109c:	681b      	ldr	r3, [r3, #0]
 800109e:	2202      	movs	r2, #2
 80010a0:	4013      	ands	r3, r2
 80010a2:	d015      	beq.n	80010d0 <HAL_RCC_ClockConfig+0x7c>
  {
    /* Set the highest APB divider in order to ensure that we do not go through
       a non-spec phase whatever we decrease or increase HCLK. */
    if(((RCC_ClkInitStruct->ClockType) & RCC_CLOCKTYPE_PCLK1) == RCC_CLOCKTYPE_PCLK1)
 80010a4:	687b      	ldr	r3, [r7, #4]
 80010a6:	681b      	ldr	r3, [r3, #0]
 80010a8:	2204      	movs	r2, #4
 80010aa:	4013      	ands	r3, r2
 80010ac:	d006      	beq.n	80010bc <HAL_RCC_ClockConfig+0x68>
    {
      MODIFY_REG(RCC->CFGR, RCC_CFGR_PPRE, RCC_HCLK_DIV16);
 80010ae:	4b4b      	ldr	r3, [pc, #300]	; (80011dc <HAL_RCC_ClockConfig+0x188>)
 80010b0:	685a      	ldr	r2, [r3, #4]
 80010b2:	4b4a      	ldr	r3, [pc, #296]	; (80011dc <HAL_RCC_ClockConfig+0x188>)
 80010b4:	21e0      	movs	r1, #224	; 0xe0
 80010b6:	00c9      	lsls	r1, r1, #3
 80010b8:	430a      	orrs	r2, r1
 80010ba:	605a      	str	r2, [r3, #4]
    }

    /* Set the new HCLK clock divider */
    assert_param(IS_RCC_HCLK(RCC_ClkInitStruct->AHBCLKDivider));
    MODIFY_REG(RCC->CFGR, RCC_CFGR_HPRE, RCC_ClkInitStruct->AHBCLKDivider);
 80010bc:	4b47      	ldr	r3, [pc, #284]	; (80011dc <HAL_RCC_ClockConfig+0x188>)
 80010be:	685b      	ldr	r3, [r3, #4]
 80010c0:	22f0      	movs	r2, #240	; 0xf0
 80010c2:	4393      	bics	r3, r2
 80010c4:	0019      	movs	r1, r3
 80010c6:	687b      	ldr	r3, [r7, #4]
 80010c8:	689a      	ldr	r2, [r3, #8]
 80010ca:	4b44      	ldr	r3, [pc, #272]	; (80011dc <HAL_RCC_ClockConfig+0x188>)
 80010cc:	430a      	orrs	r2, r1
 80010ce:	605a      	str	r2, [r3, #4]
  }

  /*------------------------- SYSCLK Configuration ---------------------------*/ 
  if(((RCC_ClkInitStruct->ClockType) & RCC_CLOCKTYPE_SYSCLK) == RCC_CLOCKTYPE_SYSCLK)
 80010d0:	687b      	ldr	r3, [r7, #4]
 80010d2:	681b      	ldr	r3, [r3, #0]
 80010d4:	2201      	movs	r2, #1
 80010d6:	4013      	ands	r3, r2
 80010d8:	d040      	beq.n	800115c <HAL_RCC_ClockConfig+0x108>
  {
    assert_param(IS_RCC_SYSCLKSOURCE(RCC_ClkInitStruct->SYSCLKSource));
    
    /* HSE is selected as System Clock Source */
    if(RCC_ClkInitStruct->SYSCLKSource == RCC_SYSCLKSOURCE_HSE)
 80010da:	687b      	ldr	r3, [r7, #4]
 80010dc:	685b      	ldr	r3, [r3, #4]
 80010de:	2b01      	cmp	r3, #1
 80010e0:	d107      	bne.n	80010f2 <HAL_RCC_ClockConfig+0x9e>
    {
      /* Check the HSE ready flag */  
      if(__HAL_RCC_GET_FLAG(RCC_FLAG_HSERDY) == RESET)
 80010e2:	4b3e      	ldr	r3, [pc, #248]	; (80011dc <HAL_RCC_ClockConfig+0x188>)
 80010e4:	681a      	ldr	r2, [r3, #0]
 80010e6:	2380      	movs	r3, #128	; 0x80
 80010e8:	029b      	lsls	r3, r3, #10
 80010ea:	4013      	ands	r3, r2
 80010ec:	d114      	bne.n	8001118 <HAL_RCC_ClockConfig+0xc4>
      {
        return HAL_ERROR;
 80010ee:	2301      	movs	r3, #1
 80010f0:	e06e      	b.n	80011d0 <HAL_RCC_ClockConfig+0x17c>
      }
    }
    /* PLL is selected as System Clock Source */
    else if(RCC_ClkInitStruct->SYSCLKSource == RCC_SYSCLKSOURCE_PLLCLK)
 80010f2:	687b      	ldr	r3, [r7, #4]
 80010f4:	685b      	ldr	r3, [r3, #4]
 80010f6:	2b02      	cmp	r3, #2
 80010f8:	d107      	bne.n	800110a <HAL_RCC_ClockConfig+0xb6>
    {
      /* Check the PLL ready flag */  
      if(__HAL_RCC_GET_FLAG(RCC_FLAG_PLLRDY) == RESET)
 80010fa:	4b38      	ldr	r3, [pc, #224]	; (80011dc <HAL_RCC_ClockConfig+0x188>)
 80010fc:	681a      	ldr	r2, [r3, #0]
 80010fe:	2380      	movs	r3, #128	; 0x80
 8001100:	049b      	lsls	r3, r3, #18
 8001102:	4013      	ands	r3, r2
 8001104:	d108      	bne.n	8001118 <HAL_RCC_ClockConfig+0xc4>
      {
        return HAL_ERROR;
 8001106:	2301      	movs	r3, #1
 8001108:	e062      	b.n	80011d0 <HAL_RCC_ClockConfig+0x17c>
#endif /* RCC_CFGR_SWS_HSI48 */
    /* HSI is selected as System Clock Source */
    else
    {
      /* Check the HSI ready flag */  
      if(__HAL_RCC_GET_FLAG(RCC_FLAG_HSIRDY) == RESET)
 800110a:	4b34      	ldr	r3, [pc, #208]	; (80011dc <HAL_RCC_ClockConfig+0x188>)
 800110c:	681b      	ldr	r3, [r3, #0]
 800110e:	2202      	movs	r2, #2
 8001110:	4013      	ands	r3, r2
 8001112:	d101      	bne.n	8001118 <HAL_RCC_ClockConfig+0xc4>
      {
        return HAL_ERROR;
 8001114:	2301      	movs	r3, #1
 8001116:	e05b      	b.n	80011d0 <HAL_RCC_ClockConfig+0x17c>
      }
    }
    __HAL_RCC_SYSCLK_CONFIG(RCC_ClkInitStruct->SYSCLKSource);
 8001118:	4b30      	ldr	r3, [pc, #192]	; (80011dc <HAL_RCC_ClockConfig+0x188>)
 800111a:	685b      	ldr	r3, [r3, #4]
 800111c:	2203      	movs	r2, #3
 800111e:	4393      	bics	r3, r2
 8001120:	0019      	movs	r1, r3
 8001122:	687b      	ldr	r3, [r7, #4]
 8001124:	685a      	ldr	r2, [r3, #4]
 8001126:	4b2d      	ldr	r3, [pc, #180]	; (80011dc <HAL_RCC_ClockConfig+0x188>)
 8001128:	430a      	orrs	r2, r1
 800112a:	605a      	str	r2, [r3, #4]

    /* Get Start Tick */
    tickstart = HAL_GetTick();
 800112c:	f7ff fa0e 	bl	800054c <HAL_GetTick>
 8001130:	0003      	movs	r3, r0
 8001132:	60fb      	str	r3, [r7, #12]
    
    while (__HAL_RCC_GET_SYSCLK_SOURCE() != (RCC_ClkInitStruct->SYSCLKSource << RCC_CFGR_SWS_Pos))
 8001134:	e009      	b.n	800114a <HAL_RCC_ClockConfig+0xf6>
    {
      if((HAL_GetTick() - tickstart ) > CLOCKSWITCH_TIMEOUT_VALUE)
 8001136:	f7ff fa09 	bl	800054c <HAL_GetTick>
 800113a:	0002      	movs	r2, r0
 800113c:	68fb      	ldr	r3, [r7, #12]
 800113e:	1ad3      	subs	r3, r2, r3
 8001140:	4a27      	ldr	r2, [pc, #156]	; (80011e0 <HAL_RCC_ClockConfig+0x18c>)
 8001142:	4293      	cmp	r3, r2
 8001144:	d901      	bls.n	800114a <HAL_RCC_ClockConfig+0xf6>
      {
        return HAL_TIMEOUT;
 8001146:	2303      	movs	r3, #3
 8001148:	e042      	b.n	80011d0 <HAL_RCC_ClockConfig+0x17c>
    while (__HAL_RCC_GET_SYSCLK_SOURCE() != (RCC_ClkInitStruct->SYSCLKSource << RCC_CFGR_SWS_Pos))
 800114a:	4b24      	ldr	r3, [pc, #144]	; (80011dc <HAL_RCC_ClockConfig+0x188>)
 800114c:	685b      	ldr	r3, [r3, #4]
 800114e:	220c      	movs	r2, #12
 8001150:	401a      	ands	r2, r3
 8001152:	687b      	ldr	r3, [r7, #4]
 8001154:	685b      	ldr	r3, [r3, #4]
 8001156:	009b      	lsls	r3, r3, #2
 8001158:	429a      	cmp	r2, r3
 800115a:	d1ec      	bne.n	8001136 <HAL_RCC_ClockConfig+0xe2>
      }
    }
  }

  /* Decreasing the number of wait states because of lower CPU frequency */
  if(FLatency < __HAL_FLASH_GET_LATENCY())
 800115c:	4b1e      	ldr	r3, [pc, #120]	; (80011d8 <HAL_RCC_ClockConfig+0x184>)
 800115e:	681b      	ldr	r3, [r3, #0]
 8001160:	2201      	movs	r2, #1
 8001162:	4013      	ands	r3, r2
 8001164:	683a      	ldr	r2, [r7, #0]
 8001166:	429a      	cmp	r2, r3
 8001168:	d211      	bcs.n	800118e <HAL_RCC_ClockConfig+0x13a>
  {    
    /* Program the new number of wait states to the LATENCY bits in the FLASH_ACR register */
    __HAL_FLASH_SET_LATENCY(FLatency);
 800116a:	4b1b      	ldr	r3, [pc, #108]	; (80011d8 <HAL_RCC_ClockConfig+0x184>)
 800116c:	681b      	ldr	r3, [r3, #0]
 800116e:	2201      	movs	r2, #1
 8001170:	4393      	bics	r3, r2
 8001172:	0019      	movs	r1, r3
 8001174:	4b18      	ldr	r3, [pc, #96]	; (80011d8 <HAL_RCC_ClockConfig+0x184>)
 8001176:	683a      	ldr	r2, [r7, #0]
 8001178:	430a      	orrs	r2, r1
 800117a:	601a      	str	r2, [r3, #0]
    
    /* Check that the new number of wait states is taken into account to access the Flash
    memory by reading the FLASH_ACR register */
    if(__HAL_FLASH_GET_LATENCY() != FLatency)
 800117c:	4b16      	ldr	r3, [pc, #88]	; (80011d8 <HAL_RCC_ClockConfig+0x184>)
 800117e:	681b      	ldr	r3, [r3, #0]
 8001180:	2201      	movs	r2, #1
 8001182:	4013      	ands	r3, r2
 8001184:	683a      	ldr	r2, [r7, #0]
 8001186:	429a      	cmp	r2, r3
 8001188:	d001      	beq.n	800118e <HAL_RCC_ClockConfig+0x13a>
    {
      return HAL_ERROR;
 800118a:	2301      	movs	r3, #1
 800118c:	e020      	b.n	80011d0 <HAL_RCC_ClockConfig+0x17c>
    }
  }    

  /*-------------------------- PCLK1 Configuration ---------------------------*/ 
  if(((RCC_ClkInitStruct->ClockType) & RCC_CLOCKTYPE_PCLK1) == RCC_CLOCKTYPE_PCLK1)
 800118e:	687b      	ldr	r3, [r7, #4]
 8001190:	681b      	ldr	r3, [r3, #0]
 8001192:	2204      	movs	r2, #4
 8001194:	4013      	ands	r3, r2
 8001196:	d009      	beq.n	80011ac <HAL_RCC_ClockConfig+0x158>
  {
    assert_param(IS_RCC_PCLK(RCC_ClkInitStruct->APB1CLKDivider));
    MODIFY_REG(RCC->CFGR, RCC_CFGR_PPRE, RCC_ClkInitStruct->APB1CLKDivider);
 8001198:	4b10      	ldr	r3, [pc, #64]	; (80011dc <HAL_RCC_ClockConfig+0x188>)
 800119a:	685b      	ldr	r3, [r3, #4]
 800119c:	4a11      	ldr	r2, [pc, #68]	; (80011e4 <HAL_RCC_ClockConfig+0x190>)
 800119e:	4013      	ands	r3, r2
 80011a0:	0019      	movs	r1, r3
 80011a2:	687b      	ldr	r3, [r7, #4]
 80011a4:	68da      	ldr	r2, [r3, #12]
 80011a6:	4b0d      	ldr	r3, [pc, #52]	; (80011dc <HAL_RCC_ClockConfig+0x188>)
 80011a8:	430a      	orrs	r2, r1
 80011aa:	605a      	str	r2, [r3, #4]
  }
  
  /* Update the SystemCoreClock global variable */
  SystemCoreClock = HAL_RCC_GetSysClockFreq() >> AHBPrescTable[(RCC->CFGR & RCC_CFGR_HPRE)>> RCC_CFGR_HPRE_BITNUMBER];
 80011ac:	f000 f820 	bl	80011f0 <HAL_RCC_GetSysClockFreq>
 80011b0:	0001      	movs	r1, r0
 80011b2:	4b0a      	ldr	r3, [pc, #40]	; (80011dc <HAL_RCC_ClockConfig+0x188>)
 80011b4:	685b      	ldr	r3, [r3, #4]
 80011b6:	091b      	lsrs	r3, r3, #4
 80011b8:	220f      	movs	r2, #15
 80011ba:	4013      	ands	r3, r2
 80011bc:	4a0a      	ldr	r2, [pc, #40]	; (80011e8 <HAL_RCC_ClockConfig+0x194>)
 80011be:	5cd3      	ldrb	r3, [r2, r3]
 80011c0:	000a      	movs	r2, r1
 80011c2:	40da      	lsrs	r2, r3
 80011c4:	4b09      	ldr	r3, [pc, #36]	; (80011ec <HAL_RCC_ClockConfig+0x198>)
 80011c6:	601a      	str	r2, [r3, #0]

  /* Configure the source of time base considering new system clocks settings*/
  HAL_InitTick (TICK_INT_PRIORITY);
 80011c8:	2000      	movs	r0, #0
 80011ca:	f7ff f979 	bl	80004c0 <HAL_InitTick>
  
  return HAL_OK;
 80011ce:	2300      	movs	r3, #0
}
 80011d0:	0018      	movs	r0, r3
 80011d2:	46bd      	mov	sp, r7
 80011d4:	b004      	add	sp, #16
 80011d6:	bd80      	pop	{r7, pc}
 80011d8:	40022000 	.word	0x40022000
 80011dc:	40021000 	.word	0x40021000
 80011e0:	00001388 	.word	0x00001388
 80011e4:	fffff8ff 	.word	0xfffff8ff
 80011e8:	08001348 	.word	0x08001348
 80011ec:	20000000 	.word	0x20000000

080011f0 <HAL_RCC_GetSysClockFreq>:
  *         right SYSCLK value. Otherwise, any configuration based on this function will be incorrect.
  *         
  * @retval SYSCLK frequency
  */
uint32_t HAL_RCC_GetSysClockFreq(void)
{
 80011f0:	b590      	push	{r4, r7, lr}
 80011f2:	b08f      	sub	sp, #60	; 0x3c
 80011f4:	af00      	add	r7, sp, #0
  const uint8_t aPLLMULFactorTable[16] = { 2U,  3U,  4U,  5U,  6U,  7U,  8U,  9U,
 80011f6:	2314      	movs	r3, #20
 80011f8:	18fb      	adds	r3, r7, r3
 80011fa:	4a2b      	ldr	r2, [pc, #172]	; (80012a8 <HAL_RCC_GetSysClockFreq+0xb8>)
 80011fc:	ca13      	ldmia	r2!, {r0, r1, r4}
 80011fe:	c313      	stmia	r3!, {r0, r1, r4}
 8001200:	6812      	ldr	r2, [r2, #0]
 8001202:	601a      	str	r2, [r3, #0]
                                         10U, 11U, 12U, 13U, 14U, 15U, 16U, 16U};
  const uint8_t aPredivFactorTable[16] = { 1U, 2U,  3U,  4U,  5U,  6U,  7U,  8U,
 8001204:	1d3b      	adds	r3, r7, #4
 8001206:	4a29      	ldr	r2, [pc, #164]	; (80012ac <HAL_RCC_GetSysClockFreq+0xbc>)
 8001208:	ca13      	ldmia	r2!, {r0, r1, r4}
 800120a:	c313      	stmia	r3!, {r0, r1, r4}
 800120c:	6812      	ldr	r2, [r2, #0]
 800120e:	601a      	str	r2, [r3, #0]
                                           9U,10U, 11U, 12U, 13U, 14U, 15U, 16U};

  uint32_t tmpreg = 0U, prediv = 0U, pllclk = 0U, pllmul = 0U;
 8001210:	2300      	movs	r3, #0
 8001212:	62fb      	str	r3, [r7, #44]	; 0x2c
 8001214:	2300      	movs	r3, #0
 8001216:	62bb      	str	r3, [r7, #40]	; 0x28
 8001218:	2300      	movs	r3, #0
 800121a:	637b      	str	r3, [r7, #52]	; 0x34
 800121c:	2300      	movs	r3, #0
 800121e:	627b      	str	r3, [r7, #36]	; 0x24
  uint32_t sysclockfreq = 0U;
 8001220:	2300      	movs	r3, #0
 8001222:	633b      	str	r3, [r7, #48]	; 0x30
  
  tmpreg = RCC->CFGR;
 8001224:	4b22      	ldr	r3, [pc, #136]	; (80012b0 <HAL_RCC_GetSysClockFreq+0xc0>)
 8001226:	685b      	ldr	r3, [r3, #4]
 8001228:	62fb      	str	r3, [r7, #44]	; 0x2c
  
  /* Get SYSCLK source -------------------------------------------------------*/
  switch (tmpreg & RCC_CFGR_SWS)
 800122a:	6afb      	ldr	r3, [r7, #44]	; 0x2c
 800122c:	220c      	movs	r2, #12
 800122e:	4013      	ands	r3, r2
 8001230:	2b04      	cmp	r3, #4
 8001232:	d002      	beq.n	800123a <HAL_RCC_GetSysClockFreq+0x4a>
 8001234:	2b08      	cmp	r3, #8
 8001236:	d003      	beq.n	8001240 <HAL_RCC_GetSysClockFreq+0x50>
 8001238:	e02d      	b.n	8001296 <HAL_RCC_GetSysClockFreq+0xa6>
  {
    case RCC_SYSCLKSOURCE_STATUS_HSE:  /* HSE used as system clock */
    {
      sysclockfreq = HSE_VALUE;
 800123a:	4b1e      	ldr	r3, [pc, #120]	; (80012b4 <HAL_RCC_GetSysClockFreq+0xc4>)
 800123c:	633b      	str	r3, [r7, #48]	; 0x30
      break;
 800123e:	e02d      	b.n	800129c <HAL_RCC_GetSysClockFreq+0xac>
    }
    case RCC_SYSCLKSOURCE_STATUS_PLLCLK:  /* PLL used as system clock */
    {
      pllmul = aPLLMULFactorTable[(uint32_t)(tmpreg & RCC_CFGR_PLLMUL) >> RCC_CFGR_PLLMUL_BITNUMBER];
 8001240:	6afb      	ldr	r3, [r7, #44]	; 0x2c
 8001242:	0c9b      	lsrs	r3, r3, #18
 8001244:	220f      	movs	r2, #15
 8001246:	4013      	ands	r3, r2
 8001248:	2214      	movs	r2, #20
 800124a:	18ba      	adds	r2, r7, r2
 800124c:	5cd3      	ldrb	r3, [r2, r3]
 800124e:	627b      	str	r3, [r7, #36]	; 0x24
      prediv = aPredivFactorTable[(uint32_t)(RCC->CFGR2 & RCC_CFGR2_PREDIV) >> RCC_CFGR2_PREDIV_BITNUMBER];
 8001250:	4b17      	ldr	r3, [pc, #92]	; (80012b0 <HAL_RCC_GetSysClockFreq+0xc0>)
 8001252:	6adb      	ldr	r3, [r3, #44]	; 0x2c
 8001254:	220f      	movs	r2, #15
 8001256:	4013      	ands	r3, r2
 8001258:	1d3a      	adds	r2, r7, #4
 800125a:	5cd3      	ldrb	r3, [r2, r3]
 800125c:	62bb      	str	r3, [r7, #40]	; 0x28
      if ((tmpreg & RCC_CFGR_PLLSRC) == RCC_PLLSOURCE_HSE)
 800125e:	6afa      	ldr	r2, [r7, #44]	; 0x2c
 8001260:	2380      	movs	r3, #128	; 0x80
 8001262:	025b      	lsls	r3, r3, #9
 8001264:	4013      	ands	r3, r2
 8001266:	d009      	beq.n	800127c <HAL_RCC_GetSysClockFreq+0x8c>
      {
        /* HSE used as PLL clock source : PLLCLK = HSE/PREDIV * PLLMUL */
        pllclk = (uint32_t)((uint64_t) HSE_VALUE / (uint64_t) (prediv)) * ((uint64_t) pllmul);
 8001268:	6ab9      	ldr	r1, [r7, #40]	; 0x28
 800126a:	4812      	ldr	r0, [pc, #72]	; (80012b4 <HAL_RCC_GetSysClockFreq+0xc4>)
 800126c:	f7fe ff4c 	bl	8000108 <__udivsi3>
 8001270:	0003      	movs	r3, r0
 8001272:	001a      	movs	r2, r3
 8001274:	6a7b      	ldr	r3, [r7, #36]	; 0x24
 8001276:	4353      	muls	r3, r2
 8001278:	637b      	str	r3, [r7, #52]	; 0x34
 800127a:	e009      	b.n	8001290 <HAL_RCC_GetSysClockFreq+0xa0>
#if  (defined(STM32F042x6) || defined(STM32F048xx) || defined(STM32F070x6) || defined(STM32F071xB) || defined(STM32F072xB) || defined(STM32F078xx) || defined(STM32F070xB) || defined(STM32F091xC) || defined(STM32F098xx) || defined(STM32F030xC))
        /* HSI used as PLL clock source : PLLCLK = HSI/PREDIV * PLLMUL */
        pllclk = (uint32_t)((uint64_t) HSI_VALUE / (uint64_t) (prediv)) * ((uint64_t) pllmul);
#else
        /* HSI used as PLL clock source : PLLCLK = HSI/2 * PLLMUL */
        pllclk = (uint32_t)((uint64_t) (HSI_VALUE >> 1U) * ((uint64_t) pllmul));
 800127c:	6a79      	ldr	r1, [r7, #36]	; 0x24
 800127e:	000a      	movs	r2, r1
 8001280:	0152      	lsls	r2, r2, #5
 8001282:	1a52      	subs	r2, r2, r1
 8001284:	0193      	lsls	r3, r2, #6
 8001286:	1a9b      	subs	r3, r3, r2
 8001288:	00db      	lsls	r3, r3, #3
 800128a:	185b      	adds	r3, r3, r1
 800128c:	021b      	lsls	r3, r3, #8
 800128e:	637b      	str	r3, [r7, #52]	; 0x34
#endif
      }
      sysclockfreq = pllclk;
 8001290:	6b7b      	ldr	r3, [r7, #52]	; 0x34
 8001292:	633b      	str	r3, [r7, #48]	; 0x30
      break;
 8001294:	e002      	b.n	800129c <HAL_RCC_GetSysClockFreq+0xac>
    }
#endif /* RCC_CFGR_SWS_HSI48 */
    case RCC_SYSCLKSOURCE_STATUS_HSI:  /* HSI used as system clock source */
    default: /* HSI used as system clock */
    {
      sysclockfreq = HSI_VALUE;
 8001296:	4b07      	ldr	r3, [pc, #28]	; (80012b4 <HAL_RCC_GetSysClockFreq+0xc4>)
 8001298:	633b      	str	r3, [r7, #48]	; 0x30
      break;
 800129a:	46c0      	nop			; (mov r8, r8)
    }
  }
  return sysclockfreq;
 800129c:	6b3b      	ldr	r3, [r7, #48]	; 0x30
}
 800129e:	0018      	movs	r0, r3
 80012a0:	46bd      	mov	sp, r7
 80012a2:	b00f      	add	sp, #60	; 0x3c
 80012a4:	bd90      	pop	{r4, r7, pc}
 80012a6:	46c0      	nop			; (mov r8, r8)
 80012a8:	08001328 	.word	0x08001328
 80012ac:	08001338 	.word	0x08001338
 80012b0:	40021000 	.word	0x40021000
 80012b4:	007a1200 	.word	0x007a1200

080012b8 <__libc_init_array>:
 80012b8:	b570      	push	{r4, r5, r6, lr}
 80012ba:	2600      	movs	r6, #0
 80012bc:	4d0c      	ldr	r5, [pc, #48]	; (80012f0 <__libc_init_array+0x38>)
 80012be:	4c0d      	ldr	r4, [pc, #52]	; (80012f4 <__libc_init_array+0x3c>)
 80012c0:	1b64      	subs	r4, r4, r5
 80012c2:	10a4      	asrs	r4, r4, #2
 80012c4:	42a6      	cmp	r6, r4
 80012c6:	d109      	bne.n	80012dc <__libc_init_array+0x24>
 80012c8:	2600      	movs	r6, #0
 80012ca:	f000 f821 	bl	8001310 <_init>
 80012ce:	4d0a      	ldr	r5, [pc, #40]	; (80012f8 <__libc_init_array+0x40>)
 80012d0:	4c0a      	ldr	r4, [pc, #40]	; (80012fc <__libc_init_array+0x44>)
 80012d2:	1b64      	subs	r4, r4, r5
 80012d4:	10a4      	asrs	r4, r4, #2
 80012d6:	42a6      	cmp	r6, r4
 80012d8:	d105      	bne.n	80012e6 <__libc_init_array+0x2e>
 80012da:	bd70      	pop	{r4, r5, r6, pc}
 80012dc:	00b3      	lsls	r3, r6, #2
 80012de:	58eb      	ldr	r3, [r5, r3]
 80012e0:	4798      	blx	r3
 80012e2:	3601      	adds	r6, #1
 80012e4:	e7ee      	b.n	80012c4 <__libc_init_array+0xc>
 80012e6:	00b3      	lsls	r3, r6, #2
 80012e8:	58eb      	ldr	r3, [r5, r3]
 80012ea:	4798      	blx	r3
 80012ec:	3601      	adds	r6, #1
 80012ee:	e7f2      	b.n	80012d6 <__libc_init_array+0x1e>
 80012f0:	08001358 	.word	0x08001358
 80012f4:	08001358 	.word	0x08001358
 80012f8:	08001358 	.word	0x08001358
 80012fc:	0800135c 	.word	0x0800135c

08001300 <memset>:
 8001300:	0003      	movs	r3, r0
 8001302:	1812      	adds	r2, r2, r0
 8001304:	4293      	cmp	r3, r2
 8001306:	d100      	bne.n	800130a <memset+0xa>
 8001308:	4770      	bx	lr
 800130a:	7019      	strb	r1, [r3, #0]
 800130c:	3301      	adds	r3, #1
 800130e:	e7f9      	b.n	8001304 <memset+0x4>

08001310 <_init>:
 8001310:	b5f8      	push	{r3, r4, r5, r6, r7, lr}
 8001312:	46c0      	nop			; (mov r8, r8)
 8001314:	bcf8      	pop	{r3, r4, r5, r6, r7}
 8001316:	bc08      	pop	{r3}
 8001318:	469e      	mov	lr, r3
 800131a:	4770      	bx	lr

0800131c <_fini>:
 800131c:	b5f8      	push	{r3, r4, r5, r6, r7, lr}
 800131e:	46c0      	nop			; (mov r8, r8)
 8001320:	bcf8      	pop	{r3, r4, r5, r6, r7}
 8001322:	bc08      	pop	{r3}
 8001324:	469e      	mov	lr, r3
 8001326:	4770      	bx	lr
