
bombup.elf:     file format elf32-littlearm

Sections:
Idx Name          Size      VMA       LMA       File off  Algn
  0 .isr_vector   000000c0  08000000  08000000  00010000  2**0
                  CONTENTS, ALLOC, LOAD, READONLY, DATA
  1 .text         00001bfc  080000c0  080000c0  000100c0  2**2
                  CONTENTS, ALLOC, LOAD, READONLY, CODE
  2 .rodata       000000a0  08001cbc  08001cbc  00011cbc  2**2
                  CONTENTS, ALLOC, LOAD, READONLY, DATA
  3 .ARM.extab    00000000  08001d5c  08001d5c  00020070  2**0
                  CONTENTS
  4 .ARM          00000000  08001d5c  08001d5c  00020070  2**0
                  CONTENTS
  5 .preinit_array 00000000  08001d5c  08001d5c  00020070  2**0
                  CONTENTS, ALLOC, LOAD, DATA
  6 .init_array   00000004  08001d5c  08001d5c  00011d5c  2**2
                  CONTENTS, ALLOC, LOAD, DATA
  7 .fini_array   00000004  08001d60  08001d60  00011d60  2**2
                  CONTENTS, ALLOC, LOAD, DATA
  8 .data         00000070  20000000  08001d64  00020000  2**2
                  CONTENTS, ALLOC, LOAD, DATA
  9 .bss          00000034  20000070  08001dd4  00020070  2**2
                  ALLOC
 10 ._user_heap_stack 00000604  200000a4  08001dd4  000200a4  2**0
                  ALLOC
 11 .ARM.attributes 00000028  00000000  00000000  00020070  2**0
                  CONTENTS, READONLY
 12 .debug_info   000050ca  00000000  00000000  00020098  2**0
                  CONTENTS, READONLY, DEBUGGING
 13 .debug_abbrev 00001b81  00000000  00000000  00025162  2**0
                  CONTENTS, READONLY, DEBUGGING
 14 .debug_aranges 00000598  00000000  00000000  00026ce8  2**3
                  CONTENTS, READONLY, DEBUGGING
 15 .debug_ranges 00000490  00000000  00000000  00027280  2**3
                  CONTENTS, READONLY, DEBUGGING
 16 .debug_macro  0000d431  00000000  00000000  00027710  2**0
                  CONTENTS, READONLY, DEBUGGING
 17 .debug_line   00004c75  00000000  00000000  00034b41  2**0
                  CONTENTS, READONLY, DEBUGGING
 18 .debug_str    0004212f  00000000  00000000  000397b6  2**0
                  CONTENTS, READONLY, DEBUGGING
 19 .comment      0000007b  00000000  00000000  0007b8e5  2**0
                  CONTENTS, READONLY
 20 .debug_frame  000013e8  00000000  00000000  0007b960  2**2
                  CONTENTS, READONLY, DEBUGGING

Disassembly of section .text:

080000c0 <__do_global_dtors_aux>:
 80000c0:	b510      	push	{r4, lr}
 80000c2:	4c06      	ldr	r4, [pc, #24]	; (80000dc <__do_global_dtors_aux+0x1c>)
 80000c4:	7823      	ldrb	r3, [r4, #0]
 80000c6:	2b00      	cmp	r3, #0
 80000c8:	d107      	bne.n	80000da <__do_global_dtors_aux+0x1a>
 80000ca:	4b05      	ldr	r3, [pc, #20]	; (80000e0 <__do_global_dtors_aux+0x20>)
 80000cc:	2b00      	cmp	r3, #0
 80000ce:	d002      	beq.n	80000d6 <__do_global_dtors_aux+0x16>
 80000d0:	4804      	ldr	r0, [pc, #16]	; (80000e4 <__do_global_dtors_aux+0x24>)
 80000d2:	e000      	b.n	80000d6 <__do_global_dtors_aux+0x16>
 80000d4:	bf00      	nop
 80000d6:	2301      	movs	r3, #1
 80000d8:	7023      	strb	r3, [r4, #0]
 80000da:	bd10      	pop	{r4, pc}
 80000dc:	20000070 	.word	0x20000070
 80000e0:	00000000 	.word	0x00000000
 80000e4:	08001ca4 	.word	0x08001ca4

080000e8 <frame_dummy>:
 80000e8:	4b04      	ldr	r3, [pc, #16]	; (80000fc <frame_dummy+0x14>)
 80000ea:	b510      	push	{r4, lr}
 80000ec:	2b00      	cmp	r3, #0
 80000ee:	d003      	beq.n	80000f8 <frame_dummy+0x10>
 80000f0:	4903      	ldr	r1, [pc, #12]	; (8000100 <frame_dummy+0x18>)
 80000f2:	4804      	ldr	r0, [pc, #16]	; (8000104 <frame_dummy+0x1c>)
 80000f4:	e000      	b.n	80000f8 <frame_dummy+0x10>
 80000f6:	bf00      	nop
 80000f8:	bd10      	pop	{r4, pc}
 80000fa:	46c0      	nop			; (mov r8, r8)
 80000fc:	00000000 	.word	0x00000000
 8000100:	20000074 	.word	0x20000074
 8000104:	08001ca4 	.word	0x08001ca4

08000108 <__udivsi3>:
 8000108:	2200      	movs	r2, #0
 800010a:	0843      	lsrs	r3, r0, #1
 800010c:	428b      	cmp	r3, r1
 800010e:	d374      	bcc.n	80001fa <__udivsi3+0xf2>
 8000110:	0903      	lsrs	r3, r0, #4
 8000112:	428b      	cmp	r3, r1
 8000114:	d35f      	bcc.n	80001d6 <__udivsi3+0xce>
 8000116:	0a03      	lsrs	r3, r0, #8
 8000118:	428b      	cmp	r3, r1
 800011a:	d344      	bcc.n	80001a6 <__udivsi3+0x9e>
 800011c:	0b03      	lsrs	r3, r0, #12
 800011e:	428b      	cmp	r3, r1
 8000120:	d328      	bcc.n	8000174 <__udivsi3+0x6c>
 8000122:	0c03      	lsrs	r3, r0, #16
 8000124:	428b      	cmp	r3, r1
 8000126:	d30d      	bcc.n	8000144 <__udivsi3+0x3c>
 8000128:	22ff      	movs	r2, #255	; 0xff
 800012a:	0209      	lsls	r1, r1, #8
 800012c:	ba12      	rev	r2, r2
 800012e:	0c03      	lsrs	r3, r0, #16
 8000130:	428b      	cmp	r3, r1
 8000132:	d302      	bcc.n	800013a <__udivsi3+0x32>
 8000134:	1212      	asrs	r2, r2, #8
 8000136:	0209      	lsls	r1, r1, #8
 8000138:	d065      	beq.n	8000206 <__udivsi3+0xfe>
 800013a:	0b03      	lsrs	r3, r0, #12
 800013c:	428b      	cmp	r3, r1
 800013e:	d319      	bcc.n	8000174 <__udivsi3+0x6c>
 8000140:	e000      	b.n	8000144 <__udivsi3+0x3c>
 8000142:	0a09      	lsrs	r1, r1, #8
 8000144:	0bc3      	lsrs	r3, r0, #15
 8000146:	428b      	cmp	r3, r1
 8000148:	d301      	bcc.n	800014e <__udivsi3+0x46>
 800014a:	03cb      	lsls	r3, r1, #15
 800014c:	1ac0      	subs	r0, r0, r3
 800014e:	4152      	adcs	r2, r2
 8000150:	0b83      	lsrs	r3, r0, #14
 8000152:	428b      	cmp	r3, r1
 8000154:	d301      	bcc.n	800015a <__udivsi3+0x52>
 8000156:	038b      	lsls	r3, r1, #14
 8000158:	1ac0      	subs	r0, r0, r3
 800015a:	4152      	adcs	r2, r2
 800015c:	0b43      	lsrs	r3, r0, #13
 800015e:	428b      	cmp	r3, r1
 8000160:	d301      	bcc.n	8000166 <__udivsi3+0x5e>
 8000162:	034b      	lsls	r3, r1, #13
 8000164:	1ac0      	subs	r0, r0, r3
 8000166:	4152      	adcs	r2, r2
 8000168:	0b03      	lsrs	r3, r0, #12
 800016a:	428b      	cmp	r3, r1
 800016c:	d301      	bcc.n	8000172 <__udivsi3+0x6a>
 800016e:	030b      	lsls	r3, r1, #12
 8000170:	1ac0      	subs	r0, r0, r3
 8000172:	4152      	adcs	r2, r2
 8000174:	0ac3      	lsrs	r3, r0, #11
 8000176:	428b      	cmp	r3, r1
 8000178:	d301      	bcc.n	800017e <__udivsi3+0x76>
 800017a:	02cb      	lsls	r3, r1, #11
 800017c:	1ac0      	subs	r0, r0, r3
 800017e:	4152      	adcs	r2, r2
 8000180:	0a83      	lsrs	r3, r0, #10
 8000182:	428b      	cmp	r3, r1
 8000184:	d301      	bcc.n	800018a <__udivsi3+0x82>
 8000186:	028b      	lsls	r3, r1, #10
 8000188:	1ac0      	subs	r0, r0, r3
 800018a:	4152      	adcs	r2, r2
 800018c:	0a43      	lsrs	r3, r0, #9
 800018e:	428b      	cmp	r3, r1
 8000190:	d301      	bcc.n	8000196 <__udivsi3+0x8e>
 8000192:	024b      	lsls	r3, r1, #9
 8000194:	1ac0      	subs	r0, r0, r3
 8000196:	4152      	adcs	r2, r2
 8000198:	0a03      	lsrs	r3, r0, #8
 800019a:	428b      	cmp	r3, r1
 800019c:	d301      	bcc.n	80001a2 <__udivsi3+0x9a>
 800019e:	020b      	lsls	r3, r1, #8
 80001a0:	1ac0      	subs	r0, r0, r3
 80001a2:	4152      	adcs	r2, r2
 80001a4:	d2cd      	bcs.n	8000142 <__udivsi3+0x3a>
 80001a6:	09c3      	lsrs	r3, r0, #7
 80001a8:	428b      	cmp	r3, r1
 80001aa:	d301      	bcc.n	80001b0 <__udivsi3+0xa8>
 80001ac:	01cb      	lsls	r3, r1, #7
 80001ae:	1ac0      	subs	r0, r0, r3
 80001b0:	4152      	adcs	r2, r2
 80001b2:	0983      	lsrs	r3, r0, #6
 80001b4:	428b      	cmp	r3, r1
 80001b6:	d301      	bcc.n	80001bc <__udivsi3+0xb4>
 80001b8:	018b      	lsls	r3, r1, #6
 80001ba:	1ac0      	subs	r0, r0, r3
 80001bc:	4152      	adcs	r2, r2
 80001be:	0943      	lsrs	r3, r0, #5
 80001c0:	428b      	cmp	r3, r1
 80001c2:	d301      	bcc.n	80001c8 <__udivsi3+0xc0>
 80001c4:	014b      	lsls	r3, r1, #5
 80001c6:	1ac0      	subs	r0, r0, r3
 80001c8:	4152      	adcs	r2, r2
 80001ca:	0903      	lsrs	r3, r0, #4
 80001cc:	428b      	cmp	r3, r1
 80001ce:	d301      	bcc.n	80001d4 <__udivsi3+0xcc>
 80001d0:	010b      	lsls	r3, r1, #4
 80001d2:	1ac0      	subs	r0, r0, r3
 80001d4:	4152      	adcs	r2, r2
 80001d6:	08c3      	lsrs	r3, r0, #3
 80001d8:	428b      	cmp	r3, r1
 80001da:	d301      	bcc.n	80001e0 <__udivsi3+0xd8>
 80001dc:	00cb      	lsls	r3, r1, #3
 80001de:	1ac0      	subs	r0, r0, r3
 80001e0:	4152      	adcs	r2, r2
 80001e2:	0883      	lsrs	r3, r0, #2
 80001e4:	428b      	cmp	r3, r1
 80001e6:	d301      	bcc.n	80001ec <__udivsi3+0xe4>
 80001e8:	008b      	lsls	r3, r1, #2
 80001ea:	1ac0      	subs	r0, r0, r3
 80001ec:	4152      	adcs	r2, r2
 80001ee:	0843      	lsrs	r3, r0, #1
 80001f0:	428b      	cmp	r3, r1
 80001f2:	d301      	bcc.n	80001f8 <__udivsi3+0xf0>
 80001f4:	004b      	lsls	r3, r1, #1
 80001f6:	1ac0      	subs	r0, r0, r3
 80001f8:	4152      	adcs	r2, r2
 80001fa:	1a41      	subs	r1, r0, r1
 80001fc:	d200      	bcs.n	8000200 <__udivsi3+0xf8>
 80001fe:	4601      	mov	r1, r0
 8000200:	4152      	adcs	r2, r2
 8000202:	4610      	mov	r0, r2
 8000204:	4770      	bx	lr
 8000206:	e7ff      	b.n	8000208 <__udivsi3+0x100>
 8000208:	b501      	push	{r0, lr}
 800020a:	2000      	movs	r0, #0
 800020c:	f000 f806 	bl	800021c <__aeabi_idiv0>
 8000210:	bd02      	pop	{r1, pc}
 8000212:	46c0      	nop			; (mov r8, r8)

08000214 <__aeabi_uidivmod>:
 8000214:	2900      	cmp	r1, #0
 8000216:	d0f7      	beq.n	8000208 <__udivsi3+0x100>
 8000218:	e776      	b.n	8000108 <__udivsi3>
 800021a:	4770      	bx	lr

0800021c <__aeabi_idiv0>:
 800021c:	4770      	bx	lr
 800021e:	46c0      	nop			; (mov r8, r8)

08000220 <_ZN10ControllerC1Ev>:
 *      Author: youri
 */

#include "Controller.h"

Controller::Controller() {
 8000220:	b580      	push	{r7, lr}
 8000222:	b082      	sub	sp, #8
 8000224:	af00      	add	r7, sp, #0
 8000226:	6078      	str	r0, [r7, #4]
 8000228:	4a03      	ldr	r2, [pc, #12]	; (8000238 <_ZN10ControllerC1Ev+0x18>)
 800022a:	687b      	ldr	r3, [r7, #4]
 800022c:	601a      	str	r2, [r3, #0]
	// TODO Auto-generated constructor stub

}
 800022e:	687b      	ldr	r3, [r7, #4]
 8000230:	0018      	movs	r0, r3
 8000232:	46bd      	mov	sp, r7
 8000234:	b002      	add	sp, #8
 8000236:	bd80      	pop	{r7, pc}
 8000238:	08001cf4 	.word	0x08001cf4

0800023c <_ZN10ControllerD1Ev>:

Controller::~Controller() {
 800023c:	b580      	push	{r7, lr}
 800023e:	b082      	sub	sp, #8
 8000240:	af00      	add	r7, sp, #0
 8000242:	6078      	str	r0, [r7, #4]
 8000244:	4a03      	ldr	r2, [pc, #12]	; (8000254 <_ZN10ControllerD1Ev+0x18>)
 8000246:	687b      	ldr	r3, [r7, #4]
 8000248:	601a      	str	r2, [r3, #0]
	// TODO Auto-generated destructor stub
}
 800024a:	687b      	ldr	r3, [r7, #4]
 800024c:	0018      	movs	r0, r3
 800024e:	46bd      	mov	sp, r7
 8000250:	b002      	add	sp, #8
 8000252:	bd80      	pop	{r7, pc}
 8000254:	08001cf4 	.word	0x08001cf4

08000258 <_ZN10ControllerD0Ev>:
Controller::~Controller() {
 8000258:	b580      	push	{r7, lr}
 800025a:	b082      	sub	sp, #8
 800025c:	af00      	add	r7, sp, #0
 800025e:	6078      	str	r0, [r7, #4]
}
 8000260:	687b      	ldr	r3, [r7, #4]
 8000262:	0018      	movs	r0, r3
 8000264:	f7ff ffea 	bl	800023c <_ZN10ControllerD1Ev>
 8000268:	687b      	ldr	r3, [r7, #4]
 800026a:	2108      	movs	r1, #8
 800026c:	0018      	movs	r0, r3
 800026e:	f001 fba5 	bl	80019bc <_ZdlPvj>
 8000272:	687b      	ldr	r3, [r7, #4]
 8000274:	0018      	movs	r0, r3
 8000276:	46bd      	mov	sp, r7
 8000278:	b002      	add	sp, #8
 800027a:	bd80      	pop	{r7, pc}

0800027c <_ZN10Controller16setButtonPressedE6Button>:

void Controller::setButtonPressed(Button btn)
{
 800027c:	b580      	push	{r7, lr}
 800027e:	b082      	sub	sp, #8
 8000280:	af00      	add	r7, sp, #0
 8000282:	6078      	str	r0, [r7, #4]
 8000284:	6039      	str	r1, [r7, #0]
	this->btn = btn;
 8000286:	687b      	ldr	r3, [r7, #4]
 8000288:	683a      	ldr	r2, [r7, #0]
 800028a:	605a      	str	r2, [r3, #4]
}
 800028c:	46c0      	nop			; (mov r8, r8)
 800028e:	46bd      	mov	sp, r7
 8000290:	b002      	add	sp, #8
 8000292:	bd80      	pop	{r7, pc}

08000294 <_ZN10Controller16getButtonPressedEv>:

Button Controller::getButtonPressed()
{
 8000294:	b580      	push	{r7, lr}
 8000296:	b082      	sub	sp, #8
 8000298:	af00      	add	r7, sp, #0
 800029a:	6078      	str	r0, [r7, #4]
	return this->btn;
 800029c:	687b      	ldr	r3, [r7, #4]
 800029e:	685b      	ldr	r3, [r3, #4]
}
 80002a0:	0018      	movs	r0, r3
 80002a2:	46bd      	mov	sp, r7
 80002a4:	b002      	add	sp, #8
 80002a6:	bd80      	pop	{r7, pc}

080002a8 <_ZN6EntityC1Ev>:

#include "Entity.h"

//Values to add to the x and y coordinates

Entity::Entity() {
 80002a8:	b580      	push	{r7, lr}
 80002aa:	b082      	sub	sp, #8
 80002ac:	af00      	add	r7, sp, #0
 80002ae:	6078      	str	r0, [r7, #4]
 80002b0:	4a03      	ldr	r2, [pc, #12]	; (80002c0 <_ZN6EntityC1Ev+0x18>)
 80002b2:	687b      	ldr	r3, [r7, #4]
 80002b4:	601a      	str	r2, [r3, #0]
	// TODO Auto-generated constructor stub

}
 80002b6:	687b      	ldr	r3, [r7, #4]
 80002b8:	0018      	movs	r0, r3
 80002ba:	46bd      	mov	sp, r7
 80002bc:	b002      	add	sp, #8
 80002be:	bd80      	pop	{r7, pc}
 80002c0:	08001d04 	.word	0x08001d04

080002c4 <_ZN6EntityC1Eii>:

Entity::Entity(int x, int y) {
 80002c4:	b580      	push	{r7, lr}
 80002c6:	b084      	sub	sp, #16
 80002c8:	af00      	add	r7, sp, #0
 80002ca:	60f8      	str	r0, [r7, #12]
 80002cc:	60b9      	str	r1, [r7, #8]
 80002ce:	607a      	str	r2, [r7, #4]
 80002d0:	4a06      	ldr	r2, [pc, #24]	; (80002ec <_ZN6EntityC1Eii+0x28>)
 80002d2:	68fb      	ldr	r3, [r7, #12]
 80002d4:	601a      	str	r2, [r3, #0]
	this->x = x;
 80002d6:	68fb      	ldr	r3, [r7, #12]
 80002d8:	68ba      	ldr	r2, [r7, #8]
 80002da:	605a      	str	r2, [r3, #4]
	this->y = y;
 80002dc:	68fb      	ldr	r3, [r7, #12]
 80002de:	687a      	ldr	r2, [r7, #4]
 80002e0:	609a      	str	r2, [r3, #8]
}
 80002e2:	68fb      	ldr	r3, [r7, #12]
 80002e4:	0018      	movs	r0, r3
 80002e6:	46bd      	mov	sp, r7
 80002e8:	b004      	add	sp, #16
 80002ea:	bd80      	pop	{r7, pc}
 80002ec:	08001d04 	.word	0x08001d04

080002f0 <_ZN6EntityD1Ev>:

Entity::~Entity() {
 80002f0:	b580      	push	{r7, lr}
 80002f2:	b082      	sub	sp, #8
 80002f4:	af00      	add	r7, sp, #0
 80002f6:	6078      	str	r0, [r7, #4]
 80002f8:	4a03      	ldr	r2, [pc, #12]	; (8000308 <_ZN6EntityD1Ev+0x18>)
 80002fa:	687b      	ldr	r3, [r7, #4]
 80002fc:	601a      	str	r2, [r3, #0]
	// TODO Auto-generated destructor stub
}
 80002fe:	687b      	ldr	r3, [r7, #4]
 8000300:	0018      	movs	r0, r3
 8000302:	46bd      	mov	sp, r7
 8000304:	b002      	add	sp, #8
 8000306:	bd80      	pop	{r7, pc}
 8000308:	08001d04 	.word	0x08001d04

0800030c <_ZN6EntityD0Ev>:
Entity::~Entity() {
 800030c:	b580      	push	{r7, lr}
 800030e:	b082      	sub	sp, #8
 8000310:	af00      	add	r7, sp, #0
 8000312:	6078      	str	r0, [r7, #4]
}
 8000314:	687b      	ldr	r3, [r7, #4]
 8000316:	0018      	movs	r0, r3
 8000318:	f7ff ffea 	bl	80002f0 <_ZN6EntityD1Ev>
 800031c:	687b      	ldr	r3, [r7, #4]
 800031e:	210c      	movs	r1, #12
 8000320:	0018      	movs	r0, r3
 8000322:	f001 fb4b 	bl	80019bc <_ZdlPvj>
 8000326:	687b      	ldr	r3, [r7, #4]
 8000328:	0018      	movs	r0, r3
 800032a:	46bd      	mov	sp, r7
 800032c:	b002      	add	sp, #8
 800032e:	bd80      	pop	{r7, pc}

08000330 <_ZN6Entity4moveE9Direction>:
{
	return this->y;
}

void Entity::move(Direction dir)
{
 8000330:	b580      	push	{r7, lr}
 8000332:	b082      	sub	sp, #8
 8000334:	af00      	add	r7, sp, #0
 8000336:	6078      	str	r0, [r7, #4]
 8000338:	6039      	str	r1, [r7, #0]
	switch(dir)
 800033a:	683b      	ldr	r3, [r7, #0]
 800033c:	2b01      	cmp	r3, #1
 800033e:	d00d      	beq.n	800035c <_ZN6Entity4moveE9Direction+0x2c>
 8000340:	dc02      	bgt.n	8000348 <_ZN6Entity4moveE9Direction+0x18>
 8000342:	2b00      	cmp	r3, #0
 8000344:	d005      	beq.n	8000352 <_ZN6Entity4moveE9Direction+0x22>
		case Direction::Right:
			this->x += 1;
	}
	//this->x += dir[0];
	//this->y += dir[1];
}
 8000346:	e018      	b.n	800037a <_ZN6Entity4moveE9Direction+0x4a>
	switch(dir)
 8000348:	2b02      	cmp	r3, #2
 800034a:	d00c      	beq.n	8000366 <_ZN6Entity4moveE9Direction+0x36>
 800034c:	2b03      	cmp	r3, #3
 800034e:	d00f      	beq.n	8000370 <_ZN6Entity4moveE9Direction+0x40>
}
 8000350:	e013      	b.n	800037a <_ZN6Entity4moveE9Direction+0x4a>
			this->y -= 1;
 8000352:	687b      	ldr	r3, [r7, #4]
 8000354:	689b      	ldr	r3, [r3, #8]
 8000356:	1e5a      	subs	r2, r3, #1
 8000358:	687b      	ldr	r3, [r7, #4]
 800035a:	609a      	str	r2, [r3, #8]
			this->y += 1;
 800035c:	687b      	ldr	r3, [r7, #4]
 800035e:	689b      	ldr	r3, [r3, #8]
 8000360:	1c5a      	adds	r2, r3, #1
 8000362:	687b      	ldr	r3, [r7, #4]
 8000364:	609a      	str	r2, [r3, #8]
			this->x -= 1;
 8000366:	687b      	ldr	r3, [r7, #4]
 8000368:	685b      	ldr	r3, [r3, #4]
 800036a:	1e5a      	subs	r2, r3, #1
 800036c:	687b      	ldr	r3, [r7, #4]
 800036e:	605a      	str	r2, [r3, #4]
			this->x += 1;
 8000370:	687b      	ldr	r3, [r7, #4]
 8000372:	685b      	ldr	r3, [r3, #4]
 8000374:	1c5a      	adds	r2, r3, #1
 8000376:	687b      	ldr	r3, [r7, #4]
 8000378:	605a      	str	r2, [r3, #4]
}
 800037a:	46c0      	nop			; (mov r8, r8)
 800037c:	46bd      	mov	sp, r7
 800037e:	b002      	add	sp, #8
 8000380:	bd80      	pop	{r7, pc}
	...

08000384 <_ZN4GameC1Ev>:

#define WIDTH 8
#define HEIGHT 8
#define PLAYER_COUNT 1

Game::Game() {
 8000384:	b590      	push	{r4, r7, lr}
 8000386:	b083      	sub	sp, #12
 8000388:	af00      	add	r7, sp, #0
 800038a:	6078      	str	r0, [r7, #4]
 800038c:	4a0a      	ldr	r2, [pc, #40]	; (80003b8 <_ZN4GameC1Ev+0x34>)
 800038e:	687b      	ldr	r3, [r7, #4]
 8000390:	601a      	str	r2, [r3, #0]
	// TODO Auto-generated constructor stub
	this->lvl = new Level(WIDTH, HEIGHT, PLAYER_COUNT);
 8000392:	4b0a      	ldr	r3, [pc, #40]	; (80003bc <_ZN4GameC1Ev+0x38>)
 8000394:	0018      	movs	r0, r3
 8000396:	f001 fb15 	bl	80019c4 <_Znwj>
 800039a:	0003      	movs	r3, r0
 800039c:	001c      	movs	r4, r3
 800039e:	2301      	movs	r3, #1
 80003a0:	2208      	movs	r2, #8
 80003a2:	2108      	movs	r1, #8
 80003a4:	0020      	movs	r0, r4
 80003a6:	f000 f855 	bl	8000454 <_ZN5LevelC1Eiii>
 80003aa:	687b      	ldr	r3, [r7, #4]
 80003ac:	60dc      	str	r4, [r3, #12]
}
 80003ae:	687b      	ldr	r3, [r7, #4]
 80003b0:	0018      	movs	r0, r3
 80003b2:	46bd      	mov	sp, r7
 80003b4:	b003      	add	sp, #12
 80003b6:	bd90      	pop	{r4, r7, pc}
 80003b8:	08001d14 	.word	0x08001d14
 80003bc:	00000644 	.word	0x00000644

080003c0 <_ZN4GameD1Ev>:

Game::~Game() {
 80003c0:	b580      	push	{r7, lr}
 80003c2:	b082      	sub	sp, #8
 80003c4:	af00      	add	r7, sp, #0
 80003c6:	6078      	str	r0, [r7, #4]
 80003c8:	4a03      	ldr	r2, [pc, #12]	; (80003d8 <_ZN4GameD1Ev+0x18>)
 80003ca:	687b      	ldr	r3, [r7, #4]
 80003cc:	601a      	str	r2, [r3, #0]
	// TODO Auto-generated destructor stub
}
 80003ce:	687b      	ldr	r3, [r7, #4]
 80003d0:	0018      	movs	r0, r3
 80003d2:	46bd      	mov	sp, r7
 80003d4:	b002      	add	sp, #8
 80003d6:	bd80      	pop	{r7, pc}
 80003d8:	08001d14 	.word	0x08001d14

080003dc <_ZN4GameD0Ev>:
Game::~Game() {
 80003dc:	b580      	push	{r7, lr}
 80003de:	b082      	sub	sp, #8
 80003e0:	af00      	add	r7, sp, #0
 80003e2:	6078      	str	r0, [r7, #4]
}
 80003e4:	687b      	ldr	r3, [r7, #4]
 80003e6:	0018      	movs	r0, r3
 80003e8:	f7ff ffea 	bl	80003c0 <_ZN4GameD1Ev>
 80003ec:	687b      	ldr	r3, [r7, #4]
 80003ee:	2110      	movs	r1, #16
 80003f0:	0018      	movs	r0, r3
 80003f2:	f001 fae3 	bl	80019bc <_ZdlPvj>
 80003f6:	687b      	ldr	r3, [r7, #4]
 80003f8:	0018      	movs	r0, r3
 80003fa:	46bd      	mov	sp, r7
 80003fc:	b002      	add	sp, #8
 80003fe:	bd80      	pop	{r7, pc}

08000400 <_ZN4Game6updateEv>:

void Game::update()
{
 8000400:	b580      	push	{r7, lr}
 8000402:	b082      	sub	sp, #8
 8000404:	af00      	add	r7, sp, #0
 8000406:	6078      	str	r0, [r7, #4]
	this->lvl->update(this->controller1, this->controller2);
 8000408:	687b      	ldr	r3, [r7, #4]
 800040a:	68d8      	ldr	r0, [r3, #12]
 800040c:	687b      	ldr	r3, [r7, #4]
 800040e:	6859      	ldr	r1, [r3, #4]
 8000410:	687b      	ldr	r3, [r7, #4]
 8000412:	689b      	ldr	r3, [r3, #8]
 8000414:	001a      	movs	r2, r3
 8000416:	f000 f8cb 	bl	80005b0 <_ZN5Level6updateEP10ControllerS1_>
		this->lvl->update(this->controller1, this->controller2);
		//if fpga ready pin = HIGH then
		//lvl.draw();
	}*/

}
 800041a:	46c0      	nop			; (mov r8, r8)
 800041c:	46bd      	mov	sp, r7
 800041e:	b002      	add	sp, #8
 8000420:	bd80      	pop	{r7, pc}

08000422 <_ZN4Game14setController1EP10Controller>:

void Game::setController1(Controller *controller)
{
 8000422:	b580      	push	{r7, lr}
 8000424:	b082      	sub	sp, #8
 8000426:	af00      	add	r7, sp, #0
 8000428:	6078      	str	r0, [r7, #4]
 800042a:	6039      	str	r1, [r7, #0]
	this->controller1 = controller;
 800042c:	687b      	ldr	r3, [r7, #4]
 800042e:	683a      	ldr	r2, [r7, #0]
 8000430:	605a      	str	r2, [r3, #4]
}
 8000432:	46c0      	nop			; (mov r8, r8)
 8000434:	46bd      	mov	sp, r7
 8000436:	b002      	add	sp, #8
 8000438:	bd80      	pop	{r7, pc}

0800043a <_ZN4Game14setController2EP10Controller>:

void Game::setController2(Controller *controller)
{
 800043a:	b580      	push	{r7, lr}
 800043c:	b082      	sub	sp, #8
 800043e:	af00      	add	r7, sp, #0
 8000440:	6078      	str	r0, [r7, #4]
 8000442:	6039      	str	r1, [r7, #0]
	this->controller2 = controller;
 8000444:	687b      	ldr	r3, [r7, #4]
 8000446:	683a      	ldr	r2, [r7, #0]
 8000448:	609a      	str	r2, [r3, #8]
}
 800044a:	46c0      	nop			; (mov r8, r8)
 800044c:	46bd      	mov	sp, r7
 800044e:	b002      	add	sp, #8
 8000450:	bd80      	pop	{r7, pc}
	...

08000454 <_ZN5LevelC1Eiii>:
 */

#include "Level.h"
#include "Player.h"

Level::Level(int width, int height, int player_count)
 8000454:	b5b0      	push	{r4, r5, r7, lr}
 8000456:	b084      	sub	sp, #16
 8000458:	af00      	add	r7, sp, #0
 800045a:	60f8      	str	r0, [r7, #12]
 800045c:	60b9      	str	r1, [r7, #8]
 800045e:	607a      	str	r2, [r7, #4]
 8000460:	603b      	str	r3, [r7, #0]
 8000462:	4a24      	ldr	r2, [pc, #144]	; (80004f4 <_ZN5LevelC1Eiii+0xa0>)
 8000464:	68fb      	ldr	r3, [r7, #12]
 8000466:	601a      	str	r2, [r3, #0]
 8000468:	68fb      	ldr	r3, [r7, #12]
 800046a:	3304      	adds	r3, #4
 800046c:	2462      	movs	r4, #98	; 0x62
 800046e:	001d      	movs	r5, r3
 8000470:	2c00      	cmp	r4, #0
 8000472:	db05      	blt.n	8000480 <_ZN5LevelC1Eiii+0x2c>
 8000474:	0028      	movs	r0, r5
 8000476:	f7ff ff17 	bl	80002a8 <_ZN6EntityC1Ev>
 800047a:	350c      	adds	r5, #12
 800047c:	3c01      	subs	r4, #1
 800047e:	e7f7      	b.n	8000470 <_ZN5LevelC1Eiii+0x1c>
 8000480:	68fb      	ldr	r3, [r7, #12]
 8000482:	2295      	movs	r2, #149	; 0x95
 8000484:	00d2      	lsls	r2, r2, #3
 8000486:	4694      	mov	ip, r2
 8000488:	4463      	add	r3, ip
 800048a:	2462      	movs	r4, #98	; 0x62
 800048c:	001d      	movs	r5, r3
 800048e:	2c00      	cmp	r4, #0
 8000490:	db05      	blt.n	800049e <_ZN5LevelC1Eiii+0x4a>
 8000492:	0028      	movs	r0, r5
 8000494:	f000 f918 	bl	80006c8 <_ZN6ObjectC1Ev>
 8000498:	3504      	adds	r5, #4
 800049a:	3c01      	subs	r4, #1
 800049c:	e7f7      	b.n	800048e <_ZN5LevelC1Eiii+0x3a>
{
	this->entityCount = 0;
 800049e:	68fb      	ldr	r3, [r7, #12]
 80004a0:	4a15      	ldr	r2, [pc, #84]	; (80004f8 <_ZN5LevelC1Eiii+0xa4>)
 80004a2:	2100      	movs	r1, #0
 80004a4:	5099      	str	r1, [r3, r2]
	this->staticObjectCount = 0;
 80004a6:	68fa      	ldr	r2, [r7, #12]
 80004a8:	23c7      	movs	r3, #199	; 0xc7
 80004aa:	00db      	lsls	r3, r3, #3
 80004ac:	2100      	movs	r1, #0
 80004ae:	50d1      	str	r1, [r2, r3]

	this->player1 = new Player("player1", 0, 0);
 80004b0:	2010      	movs	r0, #16
 80004b2:	f001 fa87 	bl	80019c4 <_Znwj>
 80004b6:	0003      	movs	r3, r0
 80004b8:	001c      	movs	r4, r3
 80004ba:	4910      	ldr	r1, [pc, #64]	; (80004fc <_ZN5LevelC1Eiii+0xa8>)
 80004bc:	2300      	movs	r3, #0
 80004be:	2200      	movs	r2, #0
 80004c0:	0020      	movs	r0, r4
 80004c2:	f000 f92f 	bl	8000724 <_ZN6PlayerC1EPcii>
 80004c6:	68fb      	ldr	r3, [r7, #12]
 80004c8:	4a0d      	ldr	r2, [pc, #52]	; (8000500 <_ZN5LevelC1Eiii+0xac>)
 80004ca:	509c      	str	r4, [r3, r2]
	//this->player1->move();
	this->player2 = new Player("player2", 0 ,0);
 80004cc:	2010      	movs	r0, #16
 80004ce:	f001 fa79 	bl	80019c4 <_Znwj>
 80004d2:	0003      	movs	r3, r0
 80004d4:	001c      	movs	r4, r3
 80004d6:	490b      	ldr	r1, [pc, #44]	; (8000504 <_ZN5LevelC1Eiii+0xb0>)
 80004d8:	2300      	movs	r3, #0
 80004da:	2200      	movs	r2, #0
 80004dc:	0020      	movs	r0, r4
 80004de:	f000 f921 	bl	8000724 <_ZN6PlayerC1EPcii>
 80004e2:	68fa      	ldr	r2, [r7, #12]
 80004e4:	23c8      	movs	r3, #200	; 0xc8
 80004e6:	00db      	lsls	r3, r3, #3
 80004e8:	50d4      	str	r4, [r2, r3]
	//this->player2->move(0,0);


}
 80004ea:	68fb      	ldr	r3, [r7, #12]
 80004ec:	0018      	movs	r0, r3
 80004ee:	46bd      	mov	sp, r7
 80004f0:	b004      	add	sp, #16
 80004f2:	bdb0      	pop	{r4, r5, r7, pc}
 80004f4:	08001d24 	.word	0x08001d24
 80004f8:	00000634 	.word	0x00000634
 80004fc:	08001cbc 	.word	0x08001cbc
 8000500:	0000063c 	.word	0x0000063c
 8000504:	08001cc4 	.word	0x08001cc4

08000508 <_ZN5LevelD1Ev>:

Level::~Level()
 8000508:	b590      	push	{r4, r7, lr}
 800050a:	b083      	sub	sp, #12
 800050c:	af00      	add	r7, sp, #0
 800050e:	6078      	str	r0, [r7, #4]
 8000510:	4a1a      	ldr	r2, [pc, #104]	; (800057c <_ZN5LevelD1Ev+0x74>)
 8000512:	687b      	ldr	r3, [r7, #4]
 8000514:	601a      	str	r2, [r3, #0]
 8000516:	687b      	ldr	r3, [r7, #4]
 8000518:	2295      	movs	r2, #149	; 0x95
 800051a:	00d2      	lsls	r2, r2, #3
 800051c:	4694      	mov	ip, r2
 800051e:	4463      	add	r3, ip
 8000520:	2b00      	cmp	r3, #0
 8000522:	d014      	beq.n	800054e <_ZN5LevelD1Ev+0x46>
 8000524:	687b      	ldr	r3, [r7, #4]
 8000526:	2295      	movs	r2, #149	; 0x95
 8000528:	00d2      	lsls	r2, r2, #3
 800052a:	4694      	mov	ip, r2
 800052c:	4463      	add	r3, ip
 800052e:	338d      	adds	r3, #141	; 0x8d
 8000530:	33ff      	adds	r3, #255	; 0xff
 8000532:	001c      	movs	r4, r3
 8000534:	687b      	ldr	r3, [r7, #4]
 8000536:	2295      	movs	r2, #149	; 0x95
 8000538:	00d2      	lsls	r2, r2, #3
 800053a:	4694      	mov	ip, r2
 800053c:	4463      	add	r3, ip
 800053e:	429c      	cmp	r4, r3
 8000540:	d005      	beq.n	800054e <_ZN5LevelD1Ev+0x46>
 8000542:	3c04      	subs	r4, #4
 8000544:	6823      	ldr	r3, [r4, #0]
 8000546:	681b      	ldr	r3, [r3, #0]
 8000548:	0020      	movs	r0, r4
 800054a:	4798      	blx	r3
 800054c:	e7f2      	b.n	8000534 <_ZN5LevelD1Ev+0x2c>
 800054e:	687b      	ldr	r3, [r7, #4]
 8000550:	3304      	adds	r3, #4
 8000552:	2b00      	cmp	r3, #0
 8000554:	d00d      	beq.n	8000572 <_ZN5LevelD1Ev+0x6a>
 8000556:	687b      	ldr	r3, [r7, #4]
 8000558:	3304      	adds	r3, #4
 800055a:	4a09      	ldr	r2, [pc, #36]	; (8000580 <_ZN5LevelD1Ev+0x78>)
 800055c:	189c      	adds	r4, r3, r2
 800055e:	687b      	ldr	r3, [r7, #4]
 8000560:	3304      	adds	r3, #4
 8000562:	429c      	cmp	r4, r3
 8000564:	d005      	beq.n	8000572 <_ZN5LevelD1Ev+0x6a>
 8000566:	3c0c      	subs	r4, #12
 8000568:	6823      	ldr	r3, [r4, #0]
 800056a:	681b      	ldr	r3, [r3, #0]
 800056c:	0020      	movs	r0, r4
 800056e:	4798      	blx	r3
 8000570:	e7f5      	b.n	800055e <_ZN5LevelD1Ev+0x56>
{
	// TODO Auto-generated destructor stub
}
 8000572:	687b      	ldr	r3, [r7, #4]
 8000574:	0018      	movs	r0, r3
 8000576:	46bd      	mov	sp, r7
 8000578:	b003      	add	sp, #12
 800057a:	bd90      	pop	{r4, r7, pc}
 800057c:	08001d24 	.word	0x08001d24
 8000580:	000004a4 	.word	0x000004a4

08000584 <_ZN5LevelD0Ev>:
Level::~Level()
 8000584:	b580      	push	{r7, lr}
 8000586:	b082      	sub	sp, #8
 8000588:	af00      	add	r7, sp, #0
 800058a:	6078      	str	r0, [r7, #4]
}
 800058c:	687b      	ldr	r3, [r7, #4]
 800058e:	0018      	movs	r0, r3
 8000590:	f7ff ffba 	bl	8000508 <_ZN5LevelD1Ev>
 8000594:	4a05      	ldr	r2, [pc, #20]	; (80005ac <_ZN5LevelD0Ev+0x28>)
 8000596:	687b      	ldr	r3, [r7, #4]
 8000598:	0011      	movs	r1, r2
 800059a:	0018      	movs	r0, r3
 800059c:	f001 fa0e 	bl	80019bc <_ZdlPvj>
 80005a0:	687b      	ldr	r3, [r7, #4]
 80005a2:	0018      	movs	r0, r3
 80005a4:	46bd      	mov	sp, r7
 80005a6:	b002      	add	sp, #8
 80005a8:	bd80      	pop	{r7, pc}
 80005aa:	46c0      	nop			; (mov r8, r8)
 80005ac:	00000644 	.word	0x00000644

080005b0 <_ZN5Level6updateEP10ControllerS1_>:

void Level::update(Controller *controller1, Controller *controller2)
{
 80005b0:	b580      	push	{r7, lr}
 80005b2:	b086      	sub	sp, #24
 80005b4:	af00      	add	r7, sp, #0
 80005b6:	60f8      	str	r0, [r7, #12]
 80005b8:	60b9      	str	r1, [r7, #8]
 80005ba:	607a      	str	r2, [r7, #4]
	switch(controller1->getButtonPressed())
 80005bc:	68bb      	ldr	r3, [r7, #8]
 80005be:	0018      	movs	r0, r3
 80005c0:	f7ff fe68 	bl	8000294 <_ZN10Controller16getButtonPressedEv>
 80005c4:	0003      	movs	r3, r0
 80005c6:	2b01      	cmp	r3, #1
 80005c8:	d010      	beq.n	80005ec <_ZN5Level6updateEP10ControllerS1_+0x3c>
 80005ca:	dc02      	bgt.n	80005d2 <_ZN5Level6updateEP10ControllerS1_+0x22>
 80005cc:	2b00      	cmp	r3, #0
 80005ce:	d005      	beq.n	80005dc <_ZN5Level6updateEP10ControllerS1_+0x2c>
 80005d0:	e024      	b.n	800061c <_ZN5Level6updateEP10ControllerS1_+0x6c>
 80005d2:	2b02      	cmp	r3, #2
 80005d4:	d012      	beq.n	80005fc <_ZN5Level6updateEP10ControllerS1_+0x4c>
 80005d6:	2b03      	cmp	r3, #3
 80005d8:	d018      	beq.n	800060c <_ZN5Level6updateEP10ControllerS1_+0x5c>
 80005da:	e01f      	b.n	800061c <_ZN5Level6updateEP10ControllerS1_+0x6c>
	{
		case Button::Up:
			this->player1->move(Direction::Up);
 80005dc:	68fb      	ldr	r3, [r7, #12]
 80005de:	4a38      	ldr	r2, [pc, #224]	; (80006c0 <_ZN5Level6updateEP10ControllerS1_+0x110>)
 80005e0:	589b      	ldr	r3, [r3, r2]
 80005e2:	2100      	movs	r1, #0
 80005e4:	0018      	movs	r0, r3
 80005e6:	f7ff fea3 	bl	8000330 <_ZN6Entity4moveE9Direction>
		break;
 80005ea:	e017      	b.n	800061c <_ZN5Level6updateEP10ControllerS1_+0x6c>
		case Button::Down:
			this->player1->move(Direction::Down);
 80005ec:	68fb      	ldr	r3, [r7, #12]
 80005ee:	4a34      	ldr	r2, [pc, #208]	; (80006c0 <_ZN5Level6updateEP10ControllerS1_+0x110>)
 80005f0:	589b      	ldr	r3, [r3, r2]
 80005f2:	2101      	movs	r1, #1
 80005f4:	0018      	movs	r0, r3
 80005f6:	f7ff fe9b 	bl	8000330 <_ZN6Entity4moveE9Direction>
		break;
 80005fa:	e00f      	b.n	800061c <_ZN5Level6updateEP10ControllerS1_+0x6c>
		case Button::Left:
			this->player1->move(Direction::Left);
 80005fc:	68fb      	ldr	r3, [r7, #12]
 80005fe:	4a30      	ldr	r2, [pc, #192]	; (80006c0 <_ZN5Level6updateEP10ControllerS1_+0x110>)
 8000600:	589b      	ldr	r3, [r3, r2]
 8000602:	2102      	movs	r1, #2
 8000604:	0018      	movs	r0, r3
 8000606:	f7ff fe93 	bl	8000330 <_ZN6Entity4moveE9Direction>
		break;
 800060a:	e007      	b.n	800061c <_ZN5Level6updateEP10ControllerS1_+0x6c>
		case Button::Right:
			this->player1->move(Direction::Right);
 800060c:	68fb      	ldr	r3, [r7, #12]
 800060e:	4a2c      	ldr	r2, [pc, #176]	; (80006c0 <_ZN5Level6updateEP10ControllerS1_+0x110>)
 8000610:	589b      	ldr	r3, [r3, r2]
 8000612:	2103      	movs	r1, #3
 8000614:	0018      	movs	r0, r3
 8000616:	f7ff fe8b 	bl	8000330 <_ZN6Entity4moveE9Direction>
		break;
 800061a:	46c0      	nop			; (mov r8, r8)
	}

	switch(controller1->getButtonPressed())
 800061c:	68bb      	ldr	r3, [r7, #8]
 800061e:	0018      	movs	r0, r3
 8000620:	f7ff fe38 	bl	8000294 <_ZN10Controller16getButtonPressedEv>
 8000624:	0003      	movs	r3, r0
 8000626:	2b01      	cmp	r3, #1
 8000628:	d011      	beq.n	800064e <_ZN5Level6updateEP10ControllerS1_+0x9e>
 800062a:	dc02      	bgt.n	8000632 <_ZN5Level6updateEP10ControllerS1_+0x82>
 800062c:	2b00      	cmp	r3, #0
 800062e:	d005      	beq.n	800063c <_ZN5Level6updateEP10ControllerS1_+0x8c>
 8000630:	e028      	b.n	8000684 <_ZN5Level6updateEP10ControllerS1_+0xd4>
 8000632:	2b02      	cmp	r3, #2
 8000634:	d014      	beq.n	8000660 <_ZN5Level6updateEP10ControllerS1_+0xb0>
 8000636:	2b03      	cmp	r3, #3
 8000638:	d01b      	beq.n	8000672 <_ZN5Level6updateEP10ControllerS1_+0xc2>
 800063a:	e023      	b.n	8000684 <_ZN5Level6updateEP10ControllerS1_+0xd4>
		{
			case Button::Up:
				this->player2->move(Direction::Up);
 800063c:	68fa      	ldr	r2, [r7, #12]
 800063e:	23c8      	movs	r3, #200	; 0xc8
 8000640:	00db      	lsls	r3, r3, #3
 8000642:	58d3      	ldr	r3, [r2, r3]
 8000644:	2100      	movs	r1, #0
 8000646:	0018      	movs	r0, r3
 8000648:	f7ff fe72 	bl	8000330 <_ZN6Entity4moveE9Direction>
			break;
 800064c:	e01a      	b.n	8000684 <_ZN5Level6updateEP10ControllerS1_+0xd4>
			case Button::Down:
				this->player2->move(Direction::Down);
 800064e:	68fa      	ldr	r2, [r7, #12]
 8000650:	23c8      	movs	r3, #200	; 0xc8
 8000652:	00db      	lsls	r3, r3, #3
 8000654:	58d3      	ldr	r3, [r2, r3]
 8000656:	2101      	movs	r1, #1
 8000658:	0018      	movs	r0, r3
 800065a:	f7ff fe69 	bl	8000330 <_ZN6Entity4moveE9Direction>
			break;
 800065e:	e011      	b.n	8000684 <_ZN5Level6updateEP10ControllerS1_+0xd4>
			case Button::Left:
				this->player2->move(Direction::Left);
 8000660:	68fa      	ldr	r2, [r7, #12]
 8000662:	23c8      	movs	r3, #200	; 0xc8
 8000664:	00db      	lsls	r3, r3, #3
 8000666:	58d3      	ldr	r3, [r2, r3]
 8000668:	2102      	movs	r1, #2
 800066a:	0018      	movs	r0, r3
 800066c:	f7ff fe60 	bl	8000330 <_ZN6Entity4moveE9Direction>
			break;
 8000670:	e008      	b.n	8000684 <_ZN5Level6updateEP10ControllerS1_+0xd4>
			case Button::Right:
				this->player2->move(Direction::Right);
 8000672:	68fa      	ldr	r2, [r7, #12]
 8000674:	23c8      	movs	r3, #200	; 0xc8
 8000676:	00db      	lsls	r3, r3, #3
 8000678:	58d3      	ldr	r3, [r2, r3]
 800067a:	2103      	movs	r1, #3
 800067c:	0018      	movs	r0, r3
 800067e:	f7ff fe57 	bl	8000330 <_ZN6Entity4moveE9Direction>
			break;
 8000682:	46c0      	nop			; (mov r8, r8)
		}

	for(int i = 0; i < this->entityCount; i++)
 8000684:	2300      	movs	r3, #0
 8000686:	617b      	str	r3, [r7, #20]
 8000688:	68fb      	ldr	r3, [r7, #12]
 800068a:	4a0e      	ldr	r2, [pc, #56]	; (80006c4 <_ZN5Level6updateEP10ControllerS1_+0x114>)
 800068c:	589b      	ldr	r3, [r3, r2]
 800068e:	697a      	ldr	r2, [r7, #20]
 8000690:	429a      	cmp	r2, r3
 8000692:	da03      	bge.n	800069c <_ZN5Level6updateEP10ControllerS1_+0xec>
 8000694:	697b      	ldr	r3, [r7, #20]
 8000696:	3301      	adds	r3, #1
 8000698:	617b      	str	r3, [r7, #20]
 800069a:	e7f5      	b.n	8000688 <_ZN5Level6updateEP10ControllerS1_+0xd8>
	{

	}

	for(int i = 0; i < this->staticObjectCount; i++)
 800069c:	2300      	movs	r3, #0
 800069e:	613b      	str	r3, [r7, #16]
 80006a0:	68fa      	ldr	r2, [r7, #12]
 80006a2:	23c7      	movs	r3, #199	; 0xc7
 80006a4:	00db      	lsls	r3, r3, #3
 80006a6:	58d3      	ldr	r3, [r2, r3]
 80006a8:	693a      	ldr	r2, [r7, #16]
 80006aa:	429a      	cmp	r2, r3
 80006ac:	da03      	bge.n	80006b6 <_ZN5Level6updateEP10ControllerS1_+0x106>
 80006ae:	693b      	ldr	r3, [r7, #16]
 80006b0:	3301      	adds	r3, #1
 80006b2:	613b      	str	r3, [r7, #16]
 80006b4:	e7f4      	b.n	80006a0 <_ZN5Level6updateEP10ControllerS1_+0xf0>
	{

	}
}
 80006b6:	46c0      	nop			; (mov r8, r8)
 80006b8:	46bd      	mov	sp, r7
 80006ba:	b006      	add	sp, #24
 80006bc:	bd80      	pop	{r7, pc}
 80006be:	46c0      	nop			; (mov r8, r8)
 80006c0:	0000063c 	.word	0x0000063c
 80006c4:	00000634 	.word	0x00000634

080006c8 <_ZN6ObjectC1Ev>:
 *      Author: youri
 */

#include "Object.h"

Object::Object() {
 80006c8:	b580      	push	{r7, lr}
 80006ca:	b082      	sub	sp, #8
 80006cc:	af00      	add	r7, sp, #0
 80006ce:	6078      	str	r0, [r7, #4]
 80006d0:	4a03      	ldr	r2, [pc, #12]	; (80006e0 <_ZN6ObjectC1Ev+0x18>)
 80006d2:	687b      	ldr	r3, [r7, #4]
 80006d4:	601a      	str	r2, [r3, #0]
	// TODO Auto-generated constructor stub

}
 80006d6:	687b      	ldr	r3, [r7, #4]
 80006d8:	0018      	movs	r0, r3
 80006da:	46bd      	mov	sp, r7
 80006dc:	b002      	add	sp, #8
 80006de:	bd80      	pop	{r7, pc}
 80006e0:	08001d34 	.word	0x08001d34

080006e4 <_ZN6ObjectD1Ev>:

Object::~Object() {
 80006e4:	b580      	push	{r7, lr}
 80006e6:	b082      	sub	sp, #8
 80006e8:	af00      	add	r7, sp, #0
 80006ea:	6078      	str	r0, [r7, #4]
 80006ec:	4a03      	ldr	r2, [pc, #12]	; (80006fc <_ZN6ObjectD1Ev+0x18>)
 80006ee:	687b      	ldr	r3, [r7, #4]
 80006f0:	601a      	str	r2, [r3, #0]
	// TODO Auto-generated destructor stub
}
 80006f2:	687b      	ldr	r3, [r7, #4]
 80006f4:	0018      	movs	r0, r3
 80006f6:	46bd      	mov	sp, r7
 80006f8:	b002      	add	sp, #8
 80006fa:	bd80      	pop	{r7, pc}
 80006fc:	08001d34 	.word	0x08001d34

08000700 <_ZN6ObjectD0Ev>:
Object::~Object() {
 8000700:	b580      	push	{r7, lr}
 8000702:	b082      	sub	sp, #8
 8000704:	af00      	add	r7, sp, #0
 8000706:	6078      	str	r0, [r7, #4]
}
 8000708:	687b      	ldr	r3, [r7, #4]
 800070a:	0018      	movs	r0, r3
 800070c:	f7ff ffea 	bl	80006e4 <_ZN6ObjectD1Ev>
 8000710:	687b      	ldr	r3, [r7, #4]
 8000712:	2104      	movs	r1, #4
 8000714:	0018      	movs	r0, r3
 8000716:	f001 f951 	bl	80019bc <_ZdlPvj>
 800071a:	687b      	ldr	r3, [r7, #4]
 800071c:	0018      	movs	r0, r3
 800071e:	46bd      	mov	sp, r7
 8000720:	b002      	add	sp, #8
 8000722:	bd80      	pop	{r7, pc}

08000724 <_ZN6PlayerC1EPcii>:
 *      Author: youri
 */

#include "Player.h"

Player::Player(char *name, int x, int y)
 8000724:	b580      	push	{r7, lr}
 8000726:	b084      	sub	sp, #16
 8000728:	af00      	add	r7, sp, #0
 800072a:	60f8      	str	r0, [r7, #12]
 800072c:	60b9      	str	r1, [r7, #8]
 800072e:	607a      	str	r2, [r7, #4]
 8000730:	603b      	str	r3, [r7, #0]
: Entity(x,y) {
 8000732:	68fb      	ldr	r3, [r7, #12]
 8000734:	683a      	ldr	r2, [r7, #0]
 8000736:	6879      	ldr	r1, [r7, #4]
 8000738:	0018      	movs	r0, r3
 800073a:	f7ff fdc3 	bl	80002c4 <_ZN6EntityC1Eii>
 800073e:	4a05      	ldr	r2, [pc, #20]	; (8000754 <_ZN6PlayerC1EPcii+0x30>)
 8000740:	68fb      	ldr	r3, [r7, #12]
 8000742:	601a      	str	r2, [r3, #0]
	// TODO Auto-generated constructor stub
	this->name = name;
 8000744:	68fb      	ldr	r3, [r7, #12]
 8000746:	68ba      	ldr	r2, [r7, #8]
 8000748:	60da      	str	r2, [r3, #12]
}
 800074a:	68fb      	ldr	r3, [r7, #12]
 800074c:	0018      	movs	r0, r3
 800074e:	46bd      	mov	sp, r7
 8000750:	b004      	add	sp, #16
 8000752:	bd80      	pop	{r7, pc}
 8000754:	08001d44 	.word	0x08001d44

08000758 <_ZN6PlayerD1Ev>:

Player::~Player() {
 8000758:	b580      	push	{r7, lr}
 800075a:	b082      	sub	sp, #8
 800075c:	af00      	add	r7, sp, #0
 800075e:	6078      	str	r0, [r7, #4]
 8000760:	4a05      	ldr	r2, [pc, #20]	; (8000778 <_ZN6PlayerD1Ev+0x20>)
 8000762:	687b      	ldr	r3, [r7, #4]
 8000764:	601a      	str	r2, [r3, #0]
 8000766:	687b      	ldr	r3, [r7, #4]
 8000768:	0018      	movs	r0, r3
 800076a:	f7ff fdc1 	bl	80002f0 <_ZN6EntityD1Ev>
	// TODO Auto-generated destructor stub
}
 800076e:	687b      	ldr	r3, [r7, #4]
 8000770:	0018      	movs	r0, r3
 8000772:	46bd      	mov	sp, r7
 8000774:	b002      	add	sp, #8
 8000776:	bd80      	pop	{r7, pc}
 8000778:	08001d44 	.word	0x08001d44

0800077c <_ZN6PlayerD0Ev>:
Player::~Player() {
 800077c:	b580      	push	{r7, lr}
 800077e:	b082      	sub	sp, #8
 8000780:	af00      	add	r7, sp, #0
 8000782:	6078      	str	r0, [r7, #4]
}
 8000784:	687b      	ldr	r3, [r7, #4]
 8000786:	0018      	movs	r0, r3
 8000788:	f7ff ffe6 	bl	8000758 <_ZN6PlayerD1Ev>
 800078c:	687b      	ldr	r3, [r7, #4]
 800078e:	2110      	movs	r1, #16
 8000790:	0018      	movs	r0, r3
 8000792:	f001 f913 	bl	80019bc <_ZdlPvj>
 8000796:	687b      	ldr	r3, [r7, #4]
 8000798:	0018      	movs	r0, r3
 800079a:	46bd      	mov	sp, r7
 800079c:	b002      	add	sp, #8
 800079e:	bd80      	pop	{r7, pc}

080007a0 <main>:
/**
  * @brief  The application entry point.
  * @retval int
  */
int main(void)
{
 80007a0:	b5b0      	push	{r4, r5, r7, lr}
 80007a2:	b086      	sub	sp, #24
 80007a4:	af00      	add	r7, sp, #0
  

  /* MCU Configuration--------------------------------------------------------*/

  /* Reset of all peripherals, Initializes the Flash interface and the Systick. */
  HAL_Init();
 80007a6:	f000 f9d7 	bl	8000b58 <HAL_Init>
  /* USER CODE BEGIN Init */

  /* USER CODE END Init */

  /* Configure the system clock */
  SystemClock_Config();
 80007aa:	f000 f871 	bl	8000890 <_Z18SystemClock_Configv>
  /* USER CODE BEGIN SysInit */

  /* USER CODE END SysInit */

  /* Initialize all configured peripherals */
  MX_GPIO_Init();
 80007ae:	f000 f8b7 	bl	8000920 <_ZL12MX_GPIO_Initv>
 

  /* Infinite loop */
  /* USER CODE BEGIN WHILE */

  Controller controller1 = Controller();
 80007b2:	250c      	movs	r5, #12
 80007b4:	197b      	adds	r3, r7, r5
 80007b6:	0018      	movs	r0, r3
 80007b8:	f7ff fd32 	bl	8000220 <_ZN10ControllerC1Ev>
  Controller controller2 = Controller();
 80007bc:	1d3b      	adds	r3, r7, #4
 80007be:	0018      	movs	r0, r3
 80007c0:	f7ff fd2e 	bl	8000220 <_ZN10ControllerC1Ev>

  controller1.setButtonPressed(Button::Down);
 80007c4:	197b      	adds	r3, r7, r5
 80007c6:	2101      	movs	r1, #1
 80007c8:	0018      	movs	r0, r3
 80007ca:	f7ff fd57 	bl	800027c <_ZN10Controller16setButtonPressedE6Button>
  Game *game = new Game();
 80007ce:	2010      	movs	r0, #16
 80007d0:	f001 f8f8 	bl	80019c4 <_Znwj>
 80007d4:	0003      	movs	r3, r0
 80007d6:	001c      	movs	r4, r3
 80007d8:	0020      	movs	r0, r4
 80007da:	f7ff fdd3 	bl	8000384 <_ZN4GameC1Ev>
 80007de:	617c      	str	r4, [r7, #20]
  game->setController1(&controller1);
 80007e0:	197a      	adds	r2, r7, r5
 80007e2:	697b      	ldr	r3, [r7, #20]
 80007e4:	0011      	movs	r1, r2
 80007e6:	0018      	movs	r0, r3
 80007e8:	f7ff fe1b 	bl	8000422 <_ZN4Game14setController1EP10Controller>
  game->setController2(&controller2);
 80007ec:	1d3a      	adds	r2, r7, #4
 80007ee:	697b      	ldr	r3, [r7, #20]
 80007f0:	0011      	movs	r1, r2
 80007f2:	0018      	movs	r0, r3
 80007f4:	f7ff fe21 	bl	800043a <_ZN4Game14setController2EP10Controller>
  //game->play();

  controller1.setButtonPressed(Button::Up);
 80007f8:	197b      	adds	r3, r7, r5
 80007fa:	2100      	movs	r1, #0
 80007fc:	0018      	movs	r0, r3
 80007fe:	f7ff fd3d 	bl	800027c <_ZN10Controller16setButtonPressedE6Button>

  game->update();
 8000802:	697b      	ldr	r3, [r7, #20]
 8000804:	0018      	movs	r0, r3
 8000806:	f7ff fdfb 	bl	8000400 <_ZN4Game6updateEv>
  //Button btn = game->get

  while (1)
  {
    /* USER CODE END WHILE */
	  if (HAL_GPIO_ReadPin(GPIOC, GPIO_PIN_13) == GPIO_PIN_SET)
 800080a:	2380      	movs	r3, #128	; 0x80
 800080c:	019b      	lsls	r3, r3, #6
 800080e:	4a1f      	ldr	r2, [pc, #124]	; (800088c <main+0xec>)
 8000810:	0019      	movs	r1, r3
 8000812:	0010      	movs	r0, r2
 8000814:	f000 fc4a 	bl	80010ac <HAL_GPIO_ReadPin>
 8000818:	0003      	movs	r3, r0
 800081a:	3b01      	subs	r3, #1
 800081c:	425a      	negs	r2, r3
 800081e:	4153      	adcs	r3, r2
 8000820:	b2db      	uxtb	r3, r3
 8000822:	2b00      	cmp	r3, #0
 8000824:	d01f      	beq.n	8000866 <main+0xc6>
	  {
		  while (HAL_GPIO_ReadPin(GPIOC, GPIO_PIN_13) == GPIO_PIN_SET);
 8000826:	2380      	movs	r3, #128	; 0x80
 8000828:	019b      	lsls	r3, r3, #6
 800082a:	4a18      	ldr	r2, [pc, #96]	; (800088c <main+0xec>)
 800082c:	0019      	movs	r1, r3
 800082e:	0010      	movs	r0, r2
 8000830:	f000 fc3c 	bl	80010ac <HAL_GPIO_ReadPin>
 8000834:	0003      	movs	r3, r0
 8000836:	3b01      	subs	r3, #1
 8000838:	425a      	negs	r2, r3
 800083a:	4153      	adcs	r3, r2
 800083c:	b2db      	uxtb	r3, r3
 800083e:	2b00      	cmp	r3, #0
 8000840:	d000      	beq.n	8000844 <main+0xa4>
 8000842:	e7f0      	b.n	8000826 <main+0x86>
		  HAL_GPIO_WritePin(GPIOA, GPIO_PIN_5, GPIO_PIN_SET);
 8000844:	2390      	movs	r3, #144	; 0x90
 8000846:	05db      	lsls	r3, r3, #23
 8000848:	2201      	movs	r2, #1
 800084a:	2120      	movs	r1, #32
 800084c:	0018      	movs	r0, r3
 800084e:	f000 fc4a 	bl	80010e6 <HAL_GPIO_WritePin>
		  HAL_Delay(5);
 8000852:	2005      	movs	r0, #5
 8000854:	f000 f9e4 	bl	8000c20 <HAL_Delay>
		  controller1.setButtonPressed(Button::Down);
 8000858:	230c      	movs	r3, #12
 800085a:	18fb      	adds	r3, r7, r3
 800085c:	2101      	movs	r1, #1
 800085e:	0018      	movs	r0, r3
 8000860:	f7ff fd0c 	bl	800027c <_ZN10Controller16setButtonPressedE6Button>
 8000864:	e00c      	b.n	8000880 <main+0xe0>
		  //HAL_GPIO_WritePin(GPIOA, GPIO_PIN_5, GPIO_PIN_RESET);
	  }
	  else
	  {
		  HAL_GPIO_WritePin(GPIOA, GPIO_PIN_5, GPIO_PIN_RESET);
 8000866:	2390      	movs	r3, #144	; 0x90
 8000868:	05db      	lsls	r3, r3, #23
 800086a:	2200      	movs	r2, #0
 800086c:	2120      	movs	r1, #32
 800086e:	0018      	movs	r0, r3
 8000870:	f000 fc39 	bl	80010e6 <HAL_GPIO_WritePin>
		  controller1.setButtonPressed(Button::None);
 8000874:	230c      	movs	r3, #12
 8000876:	18fb      	adds	r3, r7, r3
 8000878:	2106      	movs	r1, #6
 800087a:	0018      	movs	r0, r3
 800087c:	f7ff fcfe 	bl	800027c <_ZN10Controller16setButtonPressedE6Button>
	  }
	  game->update();
 8000880:	697b      	ldr	r3, [r7, #20]
 8000882:	0018      	movs	r0, r3
 8000884:	f7ff fdbc 	bl	8000400 <_ZN4Game6updateEv>
	  if (HAL_GPIO_ReadPin(GPIOC, GPIO_PIN_13) == GPIO_PIN_SET)
 8000888:	e7bf      	b.n	800080a <main+0x6a>
 800088a:	46c0      	nop			; (mov r8, r8)
 800088c:	48000800 	.word	0x48000800

08000890 <_Z18SystemClock_Configv>:
/**
  * @brief System Clock Configuration
  * @retval None
  */
void SystemClock_Config(void)
{
 8000890:	b590      	push	{r4, r7, lr}
 8000892:	b091      	sub	sp, #68	; 0x44
 8000894:	af00      	add	r7, sp, #0
  RCC_OscInitTypeDef RCC_OscInitStruct = {0};
 8000896:	2410      	movs	r4, #16
 8000898:	193b      	adds	r3, r7, r4
 800089a:	0018      	movs	r0, r3
 800089c:	2330      	movs	r3, #48	; 0x30
 800089e:	001a      	movs	r2, r3
 80008a0:	2100      	movs	r1, #0
 80008a2:	f001 f8f1 	bl	8001a88 <memset>
  RCC_ClkInitTypeDef RCC_ClkInitStruct = {0};
 80008a6:	003b      	movs	r3, r7
 80008a8:	0018      	movs	r0, r3
 80008aa:	2310      	movs	r3, #16
 80008ac:	001a      	movs	r2, r3
 80008ae:	2100      	movs	r1, #0
 80008b0:	f001 f8ea 	bl	8001a88 <memset>

  /** Initializes the CPU, AHB and APB busses clocks 
  */
  RCC_OscInitStruct.OscillatorType = RCC_OSCILLATORTYPE_HSI;
 80008b4:	0021      	movs	r1, r4
 80008b6:	187b      	adds	r3, r7, r1
 80008b8:	2202      	movs	r2, #2
 80008ba:	601a      	str	r2, [r3, #0]
  RCC_OscInitStruct.HSIState = RCC_HSI_ON;
 80008bc:	187b      	adds	r3, r7, r1
 80008be:	2201      	movs	r2, #1
 80008c0:	60da      	str	r2, [r3, #12]
  RCC_OscInitStruct.HSICalibrationValue = RCC_HSICALIBRATION_DEFAULT;
 80008c2:	187b      	adds	r3, r7, r1
 80008c4:	2210      	movs	r2, #16
 80008c6:	611a      	str	r2, [r3, #16]
  RCC_OscInitStruct.PLL.PLLState = RCC_PLL_NONE;
 80008c8:	187b      	adds	r3, r7, r1
 80008ca:	2200      	movs	r2, #0
 80008cc:	621a      	str	r2, [r3, #32]
  if (HAL_RCC_OscConfig(&RCC_OscInitStruct) != HAL_OK)
 80008ce:	187b      	adds	r3, r7, r1
 80008d0:	0018      	movs	r0, r3
 80008d2:	f000 fc25 	bl	8001120 <HAL_RCC_OscConfig>
 80008d6:	0003      	movs	r3, r0
 80008d8:	1e5a      	subs	r2, r3, #1
 80008da:	4193      	sbcs	r3, r2
 80008dc:	b2db      	uxtb	r3, r3
 80008de:	2b00      	cmp	r3, #0
 80008e0:	d001      	beq.n	80008e6 <_Z18SystemClock_Configv+0x56>
  {
    Error_Handler();
 80008e2:	f000 f877 	bl	80009d4 <Error_Handler>
  }
  /** Initializes the CPU, AHB and APB busses clocks 
  */
  RCC_ClkInitStruct.ClockType = RCC_CLOCKTYPE_HCLK|RCC_CLOCKTYPE_SYSCLK
 80008e6:	003b      	movs	r3, r7
 80008e8:	2207      	movs	r2, #7
 80008ea:	601a      	str	r2, [r3, #0]
                              |RCC_CLOCKTYPE_PCLK1;
  RCC_ClkInitStruct.SYSCLKSource = RCC_SYSCLKSOURCE_HSI;
 80008ec:	003b      	movs	r3, r7
 80008ee:	2200      	movs	r2, #0
 80008f0:	605a      	str	r2, [r3, #4]
  RCC_ClkInitStruct.AHBCLKDivider = RCC_SYSCLK_DIV1;
 80008f2:	003b      	movs	r3, r7
 80008f4:	2200      	movs	r2, #0
 80008f6:	609a      	str	r2, [r3, #8]
  RCC_ClkInitStruct.APB1CLKDivider = RCC_HCLK_DIV1;
 80008f8:	003b      	movs	r3, r7
 80008fa:	2200      	movs	r2, #0
 80008fc:	60da      	str	r2, [r3, #12]

  if (HAL_RCC_ClockConfig(&RCC_ClkInitStruct, FLASH_LATENCY_0) != HAL_OK)
 80008fe:	003b      	movs	r3, r7
 8000900:	2100      	movs	r1, #0
 8000902:	0018      	movs	r0, r3
 8000904:	f000 ff28 	bl	8001758 <HAL_RCC_ClockConfig>
 8000908:	0003      	movs	r3, r0
 800090a:	1e5a      	subs	r2, r3, #1
 800090c:	4193      	sbcs	r3, r2
 800090e:	b2db      	uxtb	r3, r3
 8000910:	2b00      	cmp	r3, #0
 8000912:	d001      	beq.n	8000918 <_Z18SystemClock_Configv+0x88>
  {
    Error_Handler();
 8000914:	f000 f85e 	bl	80009d4 <Error_Handler>
  }
}
 8000918:	46c0      	nop			; (mov r8, r8)
 800091a:	46bd      	mov	sp, r7
 800091c:	b011      	add	sp, #68	; 0x44
 800091e:	bd90      	pop	{r4, r7, pc}

08000920 <_ZL12MX_GPIO_Initv>:
  * @brief GPIO Initialization Function
  * @param None
  * @retval None
  */
static void MX_GPIO_Init(void)
{
 8000920:	b590      	push	{r4, r7, lr}
 8000922:	b089      	sub	sp, #36	; 0x24
 8000924:	af00      	add	r7, sp, #0
  GPIO_InitTypeDef GPIO_InitStruct = {0};
 8000926:	240c      	movs	r4, #12
 8000928:	193b      	adds	r3, r7, r4
 800092a:	0018      	movs	r0, r3
 800092c:	2314      	movs	r3, #20
 800092e:	001a      	movs	r2, r3
 8000930:	2100      	movs	r1, #0
 8000932:	f001 f8a9 	bl	8001a88 <memset>

  /* GPIO Ports Clock Enable */
  __HAL_RCC_GPIOC_CLK_ENABLE();
 8000936:	4b25      	ldr	r3, [pc, #148]	; (80009cc <_ZL12MX_GPIO_Initv+0xac>)
 8000938:	695a      	ldr	r2, [r3, #20]
 800093a:	4b24      	ldr	r3, [pc, #144]	; (80009cc <_ZL12MX_GPIO_Initv+0xac>)
 800093c:	2180      	movs	r1, #128	; 0x80
 800093e:	0309      	lsls	r1, r1, #12
 8000940:	430a      	orrs	r2, r1
 8000942:	615a      	str	r2, [r3, #20]
 8000944:	4b21      	ldr	r3, [pc, #132]	; (80009cc <_ZL12MX_GPIO_Initv+0xac>)
 8000946:	695a      	ldr	r2, [r3, #20]
 8000948:	2380      	movs	r3, #128	; 0x80
 800094a:	031b      	lsls	r3, r3, #12
 800094c:	4013      	ands	r3, r2
 800094e:	60bb      	str	r3, [r7, #8]
 8000950:	68bb      	ldr	r3, [r7, #8]
  __HAL_RCC_GPIOA_CLK_ENABLE();
 8000952:	4b1e      	ldr	r3, [pc, #120]	; (80009cc <_ZL12MX_GPIO_Initv+0xac>)
 8000954:	695a      	ldr	r2, [r3, #20]
 8000956:	4b1d      	ldr	r3, [pc, #116]	; (80009cc <_ZL12MX_GPIO_Initv+0xac>)
 8000958:	2180      	movs	r1, #128	; 0x80
 800095a:	0289      	lsls	r1, r1, #10
 800095c:	430a      	orrs	r2, r1
 800095e:	615a      	str	r2, [r3, #20]
 8000960:	4b1a      	ldr	r3, [pc, #104]	; (80009cc <_ZL12MX_GPIO_Initv+0xac>)
 8000962:	695a      	ldr	r2, [r3, #20]
 8000964:	2380      	movs	r3, #128	; 0x80
 8000966:	029b      	lsls	r3, r3, #10
 8000968:	4013      	ands	r3, r2
 800096a:	607b      	str	r3, [r7, #4]
 800096c:	687b      	ldr	r3, [r7, #4]

  /*Configure GPIO pin Output Level */
  HAL_GPIO_WritePin(GPIOA, GPIO_PIN_5, GPIO_PIN_RESET);
 800096e:	2390      	movs	r3, #144	; 0x90
 8000970:	05db      	lsls	r3, r3, #23
 8000972:	2200      	movs	r2, #0
 8000974:	2120      	movs	r1, #32
 8000976:	0018      	movs	r0, r3
 8000978:	f000 fbb5 	bl	80010e6 <HAL_GPIO_WritePin>

  /*Configure GPIO pin : PC13 */
  GPIO_InitStruct.Pin = GPIO_PIN_13;
 800097c:	193b      	adds	r3, r7, r4
 800097e:	2280      	movs	r2, #128	; 0x80
 8000980:	0192      	lsls	r2, r2, #6
 8000982:	601a      	str	r2, [r3, #0]
  GPIO_InitStruct.Mode = GPIO_MODE_INPUT;
 8000984:	193b      	adds	r3, r7, r4
 8000986:	2200      	movs	r2, #0
 8000988:	605a      	str	r2, [r3, #4]
  GPIO_InitStruct.Pull = GPIO_NOPULL;
 800098a:	193b      	adds	r3, r7, r4
 800098c:	2200      	movs	r2, #0
 800098e:	609a      	str	r2, [r3, #8]
  HAL_GPIO_Init(GPIOC, &GPIO_InitStruct);
 8000990:	193b      	adds	r3, r7, r4
 8000992:	4a0f      	ldr	r2, [pc, #60]	; (80009d0 <_ZL12MX_GPIO_Initv+0xb0>)
 8000994:	0019      	movs	r1, r3
 8000996:	0010      	movs	r0, r2
 8000998:	f000 fa18 	bl	8000dcc <HAL_GPIO_Init>

  /*Configure GPIO pin : PA5 */
  GPIO_InitStruct.Pin = GPIO_PIN_5;
 800099c:	0021      	movs	r1, r4
 800099e:	187b      	adds	r3, r7, r1
 80009a0:	2220      	movs	r2, #32
 80009a2:	601a      	str	r2, [r3, #0]
  GPIO_InitStruct.Mode = GPIO_MODE_OUTPUT_PP;
 80009a4:	187b      	adds	r3, r7, r1
 80009a6:	2201      	movs	r2, #1
 80009a8:	605a      	str	r2, [r3, #4]
  GPIO_InitStruct.Pull = GPIO_NOPULL;
 80009aa:	187b      	adds	r3, r7, r1
 80009ac:	2200      	movs	r2, #0
 80009ae:	609a      	str	r2, [r3, #8]
  GPIO_InitStruct.Speed = GPIO_SPEED_FREQ_LOW;
 80009b0:	187b      	adds	r3, r7, r1
 80009b2:	2200      	movs	r2, #0
 80009b4:	60da      	str	r2, [r3, #12]
  HAL_GPIO_Init(GPIOA, &GPIO_InitStruct);
 80009b6:	187a      	adds	r2, r7, r1
 80009b8:	2390      	movs	r3, #144	; 0x90
 80009ba:	05db      	lsls	r3, r3, #23
 80009bc:	0011      	movs	r1, r2
 80009be:	0018      	movs	r0, r3
 80009c0:	f000 fa04 	bl	8000dcc <HAL_GPIO_Init>

}
 80009c4:	46c0      	nop			; (mov r8, r8)
 80009c6:	46bd      	mov	sp, r7
 80009c8:	b009      	add	sp, #36	; 0x24
 80009ca:	bd90      	pop	{r4, r7, pc}
 80009cc:	40021000 	.word	0x40021000
 80009d0:	48000800 	.word	0x48000800

080009d4 <Error_Handler>:
/**
  * @brief  This function is executed in case of error occurrence.
  * @retval None
  */
void Error_Handler(void)
{
 80009d4:	b580      	push	{r7, lr}
 80009d6:	af00      	add	r7, sp, #0
  /* USER CODE BEGIN Error_Handler_Debug */
  /* User can add his own implementation to report the HAL error return state */

  /* USER CODE END Error_Handler_Debug */
}
 80009d8:	46c0      	nop			; (mov r8, r8)
 80009da:	46bd      	mov	sp, r7
 80009dc:	bd80      	pop	{r7, pc}
	...

080009e0 <HAL_MspInit>:
 80009e0:	b580      	push	{r7, lr}
 80009e2:	b082      	sub	sp, #8
 80009e4:	af00      	add	r7, sp, #0
 80009e6:	4b0f      	ldr	r3, [pc, #60]	; (8000a24 <HAL_MspInit+0x44>)
 80009e8:	699a      	ldr	r2, [r3, #24]
 80009ea:	4b0e      	ldr	r3, [pc, #56]	; (8000a24 <HAL_MspInit+0x44>)
 80009ec:	2101      	movs	r1, #1
 80009ee:	430a      	orrs	r2, r1
 80009f0:	619a      	str	r2, [r3, #24]
 80009f2:	4b0c      	ldr	r3, [pc, #48]	; (8000a24 <HAL_MspInit+0x44>)
 80009f4:	699b      	ldr	r3, [r3, #24]
 80009f6:	2201      	movs	r2, #1
 80009f8:	4013      	ands	r3, r2
 80009fa:	607b      	str	r3, [r7, #4]
 80009fc:	687b      	ldr	r3, [r7, #4]
 80009fe:	4b09      	ldr	r3, [pc, #36]	; (8000a24 <HAL_MspInit+0x44>)
 8000a00:	69da      	ldr	r2, [r3, #28]
 8000a02:	4b08      	ldr	r3, [pc, #32]	; (8000a24 <HAL_MspInit+0x44>)
 8000a04:	2180      	movs	r1, #128	; 0x80
 8000a06:	0549      	lsls	r1, r1, #21
 8000a08:	430a      	orrs	r2, r1
 8000a0a:	61da      	str	r2, [r3, #28]
 8000a0c:	4b05      	ldr	r3, [pc, #20]	; (8000a24 <HAL_MspInit+0x44>)
 8000a0e:	69da      	ldr	r2, [r3, #28]
 8000a10:	2380      	movs	r3, #128	; 0x80
 8000a12:	055b      	lsls	r3, r3, #21
 8000a14:	4013      	ands	r3, r2
 8000a16:	603b      	str	r3, [r7, #0]
 8000a18:	683b      	ldr	r3, [r7, #0]
 8000a1a:	46c0      	nop			; (mov r8, r8)
 8000a1c:	46bd      	mov	sp, r7
 8000a1e:	b002      	add	sp, #8
 8000a20:	bd80      	pop	{r7, pc}
 8000a22:	46c0      	nop			; (mov r8, r8)
 8000a24:	40021000 	.word	0x40021000

08000a28 <NMI_Handler>:
 8000a28:	b580      	push	{r7, lr}
 8000a2a:	af00      	add	r7, sp, #0
 8000a2c:	46c0      	nop			; (mov r8, r8)
 8000a2e:	46bd      	mov	sp, r7
 8000a30:	bd80      	pop	{r7, pc}

08000a32 <HardFault_Handler>:
 8000a32:	b580      	push	{r7, lr}
 8000a34:	af00      	add	r7, sp, #0
 8000a36:	e7fe      	b.n	8000a36 <HardFault_Handler+0x4>

08000a38 <SVC_Handler>:
 8000a38:	b580      	push	{r7, lr}
 8000a3a:	af00      	add	r7, sp, #0
 8000a3c:	46c0      	nop			; (mov r8, r8)
 8000a3e:	46bd      	mov	sp, r7
 8000a40:	bd80      	pop	{r7, pc}

08000a42 <PendSV_Handler>:
 8000a42:	b580      	push	{r7, lr}
 8000a44:	af00      	add	r7, sp, #0
 8000a46:	46c0      	nop			; (mov r8, r8)
 8000a48:	46bd      	mov	sp, r7
 8000a4a:	bd80      	pop	{r7, pc}

08000a4c <SysTick_Handler>:
 8000a4c:	b580      	push	{r7, lr}
 8000a4e:	af00      	add	r7, sp, #0
 8000a50:	f000 f8ca 	bl	8000be8 <HAL_IncTick>
 8000a54:	46c0      	nop			; (mov r8, r8)
 8000a56:	46bd      	mov	sp, r7
 8000a58:	bd80      	pop	{r7, pc}

08000a5a <_getpid>:
 8000a5a:	b580      	push	{r7, lr}
 8000a5c:	af00      	add	r7, sp, #0
 8000a5e:	2301      	movs	r3, #1
 8000a60:	0018      	movs	r0, r3
 8000a62:	46bd      	mov	sp, r7
 8000a64:	bd80      	pop	{r7, pc}

08000a66 <_kill>:
 8000a66:	b580      	push	{r7, lr}
 8000a68:	b082      	sub	sp, #8
 8000a6a:	af00      	add	r7, sp, #0
 8000a6c:	6078      	str	r0, [r7, #4]
 8000a6e:	6039      	str	r1, [r7, #0]
 8000a70:	f000 ffcc 	bl	8001a0c <__errno>
 8000a74:	0003      	movs	r3, r0
 8000a76:	2216      	movs	r2, #22
 8000a78:	601a      	str	r2, [r3, #0]
 8000a7a:	2301      	movs	r3, #1
 8000a7c:	425b      	negs	r3, r3
 8000a7e:	0018      	movs	r0, r3
 8000a80:	46bd      	mov	sp, r7
 8000a82:	b002      	add	sp, #8
 8000a84:	bd80      	pop	{r7, pc}

08000a86 <_exit>:
 8000a86:	b580      	push	{r7, lr}
 8000a88:	b082      	sub	sp, #8
 8000a8a:	af00      	add	r7, sp, #0
 8000a8c:	6078      	str	r0, [r7, #4]
 8000a8e:	2301      	movs	r3, #1
 8000a90:	425a      	negs	r2, r3
 8000a92:	687b      	ldr	r3, [r7, #4]
 8000a94:	0011      	movs	r1, r2
 8000a96:	0018      	movs	r0, r3
 8000a98:	f7ff ffe5 	bl	8000a66 <_kill>
 8000a9c:	e7fe      	b.n	8000a9c <_exit+0x16>
	...

08000aa0 <_sbrk>:
 8000aa0:	b580      	push	{r7, lr}
 8000aa2:	b084      	sub	sp, #16
 8000aa4:	af00      	add	r7, sp, #0
 8000aa6:	6078      	str	r0, [r7, #4]
 8000aa8:	4b11      	ldr	r3, [pc, #68]	; (8000af0 <_sbrk+0x50>)
 8000aaa:	681b      	ldr	r3, [r3, #0]
 8000aac:	2b00      	cmp	r3, #0
 8000aae:	d102      	bne.n	8000ab6 <_sbrk+0x16>
 8000ab0:	4b0f      	ldr	r3, [pc, #60]	; (8000af0 <_sbrk+0x50>)
 8000ab2:	4a10      	ldr	r2, [pc, #64]	; (8000af4 <_sbrk+0x54>)
 8000ab4:	601a      	str	r2, [r3, #0]
 8000ab6:	4b0e      	ldr	r3, [pc, #56]	; (8000af0 <_sbrk+0x50>)
 8000ab8:	681b      	ldr	r3, [r3, #0]
 8000aba:	60fb      	str	r3, [r7, #12]
 8000abc:	4b0c      	ldr	r3, [pc, #48]	; (8000af0 <_sbrk+0x50>)
 8000abe:	681a      	ldr	r2, [r3, #0]
 8000ac0:	687b      	ldr	r3, [r7, #4]
 8000ac2:	18d3      	adds	r3, r2, r3
 8000ac4:	466a      	mov	r2, sp
 8000ac6:	4293      	cmp	r3, r2
 8000ac8:	d907      	bls.n	8000ada <_sbrk+0x3a>
 8000aca:	f000 ff9f 	bl	8001a0c <__errno>
 8000ace:	0003      	movs	r3, r0
 8000ad0:	220c      	movs	r2, #12
 8000ad2:	601a      	str	r2, [r3, #0]
 8000ad4:	2301      	movs	r3, #1
 8000ad6:	425b      	negs	r3, r3
 8000ad8:	e006      	b.n	8000ae8 <_sbrk+0x48>
 8000ada:	4b05      	ldr	r3, [pc, #20]	; (8000af0 <_sbrk+0x50>)
 8000adc:	681a      	ldr	r2, [r3, #0]
 8000ade:	687b      	ldr	r3, [r7, #4]
 8000ae0:	18d2      	adds	r2, r2, r3
 8000ae2:	4b03      	ldr	r3, [pc, #12]	; (8000af0 <_sbrk+0x50>)
 8000ae4:	601a      	str	r2, [r3, #0]
 8000ae6:	68fb      	ldr	r3, [r7, #12]
 8000ae8:	0018      	movs	r0, r3
 8000aea:	46bd      	mov	sp, r7
 8000aec:	b004      	add	sp, #16
 8000aee:	bd80      	pop	{r7, pc}
 8000af0:	2000008c 	.word	0x2000008c
 8000af4:	200000a8 	.word	0x200000a8

08000af8 <SystemInit>:
 8000af8:	b580      	push	{r7, lr}
 8000afa:	af00      	add	r7, sp, #0
 8000afc:	46c0      	nop			; (mov r8, r8)
 8000afe:	46bd      	mov	sp, r7
 8000b00:	bd80      	pop	{r7, pc}
	...

08000b04 <Reset_Handler>:
 8000b04:	480d      	ldr	r0, [pc, #52]	; (8000b3c <LoopForever+0x2>)
 8000b06:	4685      	mov	sp, r0
 8000b08:	480d      	ldr	r0, [pc, #52]	; (8000b40 <LoopForever+0x6>)
 8000b0a:	490e      	ldr	r1, [pc, #56]	; (8000b44 <LoopForever+0xa>)
 8000b0c:	4a0e      	ldr	r2, [pc, #56]	; (8000b48 <LoopForever+0xe>)
 8000b0e:	2300      	movs	r3, #0
 8000b10:	e002      	b.n	8000b18 <LoopCopyDataInit>

08000b12 <CopyDataInit>:
 8000b12:	58d4      	ldr	r4, [r2, r3]
 8000b14:	50c4      	str	r4, [r0, r3]
 8000b16:	3304      	adds	r3, #4

08000b18 <LoopCopyDataInit>:
 8000b18:	18c4      	adds	r4, r0, r3
 8000b1a:	428c      	cmp	r4, r1
 8000b1c:	d3f9      	bcc.n	8000b12 <CopyDataInit>
 8000b1e:	4a0b      	ldr	r2, [pc, #44]	; (8000b4c <LoopForever+0x12>)
 8000b20:	4c0b      	ldr	r4, [pc, #44]	; (8000b50 <LoopForever+0x16>)
 8000b22:	2300      	movs	r3, #0
 8000b24:	e001      	b.n	8000b2a <LoopFillZerobss>

08000b26 <FillZerobss>:
 8000b26:	6013      	str	r3, [r2, #0]
 8000b28:	3204      	adds	r2, #4

08000b2a <LoopFillZerobss>:
 8000b2a:	42a2      	cmp	r2, r4
 8000b2c:	d3fb      	bcc.n	8000b26 <FillZerobss>
 8000b2e:	f7ff ffe3 	bl	8000af8 <SystemInit>
 8000b32:	f000 ff71 	bl	8001a18 <__libc_init_array>
 8000b36:	f7ff fe33 	bl	80007a0 <main>

08000b3a <LoopForever>:
 8000b3a:	e7fe      	b.n	8000b3a <LoopForever>
 8000b3c:	20002000 	.word	0x20002000
 8000b40:	20000000 	.word	0x20000000
 8000b44:	20000070 	.word	0x20000070
 8000b48:	08001d64 	.word	0x08001d64
 8000b4c:	20000070 	.word	0x20000070
 8000b50:	200000a4 	.word	0x200000a4

08000b54 <ADC1_IRQHandler>:
 8000b54:	e7fe      	b.n	8000b54 <ADC1_IRQHandler>
	...

08000b58 <HAL_Init>:
 8000b58:	b580      	push	{r7, lr}
 8000b5a:	af00      	add	r7, sp, #0
 8000b5c:	4b07      	ldr	r3, [pc, #28]	; (8000b7c <HAL_Init+0x24>)
 8000b5e:	681a      	ldr	r2, [r3, #0]
 8000b60:	4b06      	ldr	r3, [pc, #24]	; (8000b7c <HAL_Init+0x24>)
 8000b62:	2110      	movs	r1, #16
 8000b64:	430a      	orrs	r2, r1
 8000b66:	601a      	str	r2, [r3, #0]
 8000b68:	2000      	movs	r0, #0
 8000b6a:	f000 f809 	bl	8000b80 <HAL_InitTick>
 8000b6e:	f7ff ff37 	bl	80009e0 <HAL_MspInit>
 8000b72:	2300      	movs	r3, #0
 8000b74:	0018      	movs	r0, r3
 8000b76:	46bd      	mov	sp, r7
 8000b78:	bd80      	pop	{r7, pc}
 8000b7a:	46c0      	nop			; (mov r8, r8)
 8000b7c:	40022000 	.word	0x40022000

08000b80 <HAL_InitTick>:
 8000b80:	b590      	push	{r4, r7, lr}
 8000b82:	b083      	sub	sp, #12
 8000b84:	af00      	add	r7, sp, #0
 8000b86:	6078      	str	r0, [r7, #4]
 8000b88:	4b14      	ldr	r3, [pc, #80]	; (8000bdc <HAL_InitTick+0x5c>)
 8000b8a:	681c      	ldr	r4, [r3, #0]
 8000b8c:	4b14      	ldr	r3, [pc, #80]	; (8000be0 <HAL_InitTick+0x60>)
 8000b8e:	781b      	ldrb	r3, [r3, #0]
 8000b90:	0019      	movs	r1, r3
 8000b92:	23fa      	movs	r3, #250	; 0xfa
 8000b94:	0098      	lsls	r0, r3, #2
 8000b96:	f7ff fab7 	bl	8000108 <__udivsi3>
 8000b9a:	0003      	movs	r3, r0
 8000b9c:	0019      	movs	r1, r3
 8000b9e:	0020      	movs	r0, r4
 8000ba0:	f7ff fab2 	bl	8000108 <__udivsi3>
 8000ba4:	0003      	movs	r3, r0
 8000ba6:	0018      	movs	r0, r3
 8000ba8:	f000 f903 	bl	8000db2 <HAL_SYSTICK_Config>
 8000bac:	1e03      	subs	r3, r0, #0
 8000bae:	d001      	beq.n	8000bb4 <HAL_InitTick+0x34>
 8000bb0:	2301      	movs	r3, #1
 8000bb2:	e00f      	b.n	8000bd4 <HAL_InitTick+0x54>
 8000bb4:	687b      	ldr	r3, [r7, #4]
 8000bb6:	2b03      	cmp	r3, #3
 8000bb8:	d80b      	bhi.n	8000bd2 <HAL_InitTick+0x52>
 8000bba:	6879      	ldr	r1, [r7, #4]
 8000bbc:	2301      	movs	r3, #1
 8000bbe:	425b      	negs	r3, r3
 8000bc0:	2200      	movs	r2, #0
 8000bc2:	0018      	movs	r0, r3
 8000bc4:	f000 f8e0 	bl	8000d88 <HAL_NVIC_SetPriority>
 8000bc8:	4b06      	ldr	r3, [pc, #24]	; (8000be4 <HAL_InitTick+0x64>)
 8000bca:	687a      	ldr	r2, [r7, #4]
 8000bcc:	601a      	str	r2, [r3, #0]
 8000bce:	2300      	movs	r3, #0
 8000bd0:	e000      	b.n	8000bd4 <HAL_InitTick+0x54>
 8000bd2:	2301      	movs	r3, #1
 8000bd4:	0018      	movs	r0, r3
 8000bd6:	46bd      	mov	sp, r7
 8000bd8:	b003      	add	sp, #12
 8000bda:	bd90      	pop	{r4, r7, pc}
 8000bdc:	20000000 	.word	0x20000000
 8000be0:	20000008 	.word	0x20000008
 8000be4:	20000004 	.word	0x20000004

08000be8 <HAL_IncTick>:
 8000be8:	b580      	push	{r7, lr}
 8000bea:	af00      	add	r7, sp, #0
 8000bec:	4b05      	ldr	r3, [pc, #20]	; (8000c04 <HAL_IncTick+0x1c>)
 8000bee:	781b      	ldrb	r3, [r3, #0]
 8000bf0:	001a      	movs	r2, r3
 8000bf2:	4b05      	ldr	r3, [pc, #20]	; (8000c08 <HAL_IncTick+0x20>)
 8000bf4:	681b      	ldr	r3, [r3, #0]
 8000bf6:	18d2      	adds	r2, r2, r3
 8000bf8:	4b03      	ldr	r3, [pc, #12]	; (8000c08 <HAL_IncTick+0x20>)
 8000bfa:	601a      	str	r2, [r3, #0]
 8000bfc:	46c0      	nop			; (mov r8, r8)
 8000bfe:	46bd      	mov	sp, r7
 8000c00:	bd80      	pop	{r7, pc}
 8000c02:	46c0      	nop			; (mov r8, r8)
 8000c04:	20000008 	.word	0x20000008
 8000c08:	2000009c 	.word	0x2000009c

08000c0c <HAL_GetTick>:
 8000c0c:	b580      	push	{r7, lr}
 8000c0e:	af00      	add	r7, sp, #0
 8000c10:	4b02      	ldr	r3, [pc, #8]	; (8000c1c <HAL_GetTick+0x10>)
 8000c12:	681b      	ldr	r3, [r3, #0]
 8000c14:	0018      	movs	r0, r3
 8000c16:	46bd      	mov	sp, r7
 8000c18:	bd80      	pop	{r7, pc}
 8000c1a:	46c0      	nop			; (mov r8, r8)
 8000c1c:	2000009c 	.word	0x2000009c

08000c20 <HAL_Delay>:
 8000c20:	b580      	push	{r7, lr}
 8000c22:	b084      	sub	sp, #16
 8000c24:	af00      	add	r7, sp, #0
 8000c26:	6078      	str	r0, [r7, #4]
 8000c28:	f7ff fff0 	bl	8000c0c <HAL_GetTick>
 8000c2c:	0003      	movs	r3, r0
 8000c2e:	60bb      	str	r3, [r7, #8]
 8000c30:	687b      	ldr	r3, [r7, #4]
 8000c32:	60fb      	str	r3, [r7, #12]
 8000c34:	68fb      	ldr	r3, [r7, #12]
 8000c36:	3301      	adds	r3, #1
 8000c38:	d005      	beq.n	8000c46 <HAL_Delay+0x26>
 8000c3a:	4b09      	ldr	r3, [pc, #36]	; (8000c60 <HAL_Delay+0x40>)
 8000c3c:	781b      	ldrb	r3, [r3, #0]
 8000c3e:	001a      	movs	r2, r3
 8000c40:	68fb      	ldr	r3, [r7, #12]
 8000c42:	189b      	adds	r3, r3, r2
 8000c44:	60fb      	str	r3, [r7, #12]
 8000c46:	46c0      	nop			; (mov r8, r8)
 8000c48:	f7ff ffe0 	bl	8000c0c <HAL_GetTick>
 8000c4c:	0002      	movs	r2, r0
 8000c4e:	68bb      	ldr	r3, [r7, #8]
 8000c50:	1ad3      	subs	r3, r2, r3
 8000c52:	68fa      	ldr	r2, [r7, #12]
 8000c54:	429a      	cmp	r2, r3
 8000c56:	d8f7      	bhi.n	8000c48 <HAL_Delay+0x28>
 8000c58:	46c0      	nop			; (mov r8, r8)
 8000c5a:	46bd      	mov	sp, r7
 8000c5c:	b004      	add	sp, #16
 8000c5e:	bd80      	pop	{r7, pc}
 8000c60:	20000008 	.word	0x20000008

08000c64 <__NVIC_SetPriority>:
 8000c64:	b590      	push	{r4, r7, lr}
 8000c66:	b083      	sub	sp, #12
 8000c68:	af00      	add	r7, sp, #0
 8000c6a:	0002      	movs	r2, r0
 8000c6c:	6039      	str	r1, [r7, #0]
 8000c6e:	1dfb      	adds	r3, r7, #7
 8000c70:	701a      	strb	r2, [r3, #0]
 8000c72:	1dfb      	adds	r3, r7, #7
 8000c74:	781b      	ldrb	r3, [r3, #0]
 8000c76:	2b7f      	cmp	r3, #127	; 0x7f
 8000c78:	d828      	bhi.n	8000ccc <__NVIC_SetPriority+0x68>
 8000c7a:	4a2f      	ldr	r2, [pc, #188]	; (8000d38 <__NVIC_SetPriority+0xd4>)
 8000c7c:	1dfb      	adds	r3, r7, #7
 8000c7e:	781b      	ldrb	r3, [r3, #0]
 8000c80:	b25b      	sxtb	r3, r3
 8000c82:	089b      	lsrs	r3, r3, #2
 8000c84:	33c0      	adds	r3, #192	; 0xc0
 8000c86:	009b      	lsls	r3, r3, #2
 8000c88:	589b      	ldr	r3, [r3, r2]
 8000c8a:	1dfa      	adds	r2, r7, #7
 8000c8c:	7812      	ldrb	r2, [r2, #0]
 8000c8e:	0011      	movs	r1, r2
 8000c90:	2203      	movs	r2, #3
 8000c92:	400a      	ands	r2, r1
 8000c94:	00d2      	lsls	r2, r2, #3
 8000c96:	21ff      	movs	r1, #255	; 0xff
 8000c98:	4091      	lsls	r1, r2
 8000c9a:	000a      	movs	r2, r1
 8000c9c:	43d2      	mvns	r2, r2
 8000c9e:	401a      	ands	r2, r3
 8000ca0:	0011      	movs	r1, r2
 8000ca2:	683b      	ldr	r3, [r7, #0]
 8000ca4:	019b      	lsls	r3, r3, #6
 8000ca6:	22ff      	movs	r2, #255	; 0xff
 8000ca8:	401a      	ands	r2, r3
 8000caa:	1dfb      	adds	r3, r7, #7
 8000cac:	781b      	ldrb	r3, [r3, #0]
 8000cae:	0018      	movs	r0, r3
 8000cb0:	2303      	movs	r3, #3
 8000cb2:	4003      	ands	r3, r0
 8000cb4:	00db      	lsls	r3, r3, #3
 8000cb6:	409a      	lsls	r2, r3
 8000cb8:	481f      	ldr	r0, [pc, #124]	; (8000d38 <__NVIC_SetPriority+0xd4>)
 8000cba:	1dfb      	adds	r3, r7, #7
 8000cbc:	781b      	ldrb	r3, [r3, #0]
 8000cbe:	b25b      	sxtb	r3, r3
 8000cc0:	089b      	lsrs	r3, r3, #2
 8000cc2:	430a      	orrs	r2, r1
 8000cc4:	33c0      	adds	r3, #192	; 0xc0
 8000cc6:	009b      	lsls	r3, r3, #2
 8000cc8:	501a      	str	r2, [r3, r0]
 8000cca:	e031      	b.n	8000d30 <__NVIC_SetPriority+0xcc>
 8000ccc:	4a1b      	ldr	r2, [pc, #108]	; (8000d3c <__NVIC_SetPriority+0xd8>)
 8000cce:	1dfb      	adds	r3, r7, #7
 8000cd0:	781b      	ldrb	r3, [r3, #0]
 8000cd2:	0019      	movs	r1, r3
 8000cd4:	230f      	movs	r3, #15
 8000cd6:	400b      	ands	r3, r1
 8000cd8:	3b08      	subs	r3, #8
 8000cda:	089b      	lsrs	r3, r3, #2
 8000cdc:	3306      	adds	r3, #6
 8000cde:	009b      	lsls	r3, r3, #2
 8000ce0:	18d3      	adds	r3, r2, r3
 8000ce2:	3304      	adds	r3, #4
 8000ce4:	681b      	ldr	r3, [r3, #0]
 8000ce6:	1dfa      	adds	r2, r7, #7
 8000ce8:	7812      	ldrb	r2, [r2, #0]
 8000cea:	0011      	movs	r1, r2
 8000cec:	2203      	movs	r2, #3
 8000cee:	400a      	ands	r2, r1
 8000cf0:	00d2      	lsls	r2, r2, #3
 8000cf2:	21ff      	movs	r1, #255	; 0xff
 8000cf4:	4091      	lsls	r1, r2
 8000cf6:	000a      	movs	r2, r1
 8000cf8:	43d2      	mvns	r2, r2
 8000cfa:	401a      	ands	r2, r3
 8000cfc:	0011      	movs	r1, r2
 8000cfe:	683b      	ldr	r3, [r7, #0]
 8000d00:	019b      	lsls	r3, r3, #6
 8000d02:	22ff      	movs	r2, #255	; 0xff
 8000d04:	401a      	ands	r2, r3
 8000d06:	1dfb      	adds	r3, r7, #7
 8000d08:	781b      	ldrb	r3, [r3, #0]
 8000d0a:	0018      	movs	r0, r3
 8000d0c:	2303      	movs	r3, #3
 8000d0e:	4003      	ands	r3, r0
 8000d10:	00db      	lsls	r3, r3, #3
 8000d12:	409a      	lsls	r2, r3
 8000d14:	4809      	ldr	r0, [pc, #36]	; (8000d3c <__NVIC_SetPriority+0xd8>)
 8000d16:	1dfb      	adds	r3, r7, #7
 8000d18:	781b      	ldrb	r3, [r3, #0]
 8000d1a:	001c      	movs	r4, r3
 8000d1c:	230f      	movs	r3, #15
 8000d1e:	4023      	ands	r3, r4
 8000d20:	3b08      	subs	r3, #8
 8000d22:	089b      	lsrs	r3, r3, #2
 8000d24:	430a      	orrs	r2, r1
 8000d26:	3306      	adds	r3, #6
 8000d28:	009b      	lsls	r3, r3, #2
 8000d2a:	18c3      	adds	r3, r0, r3
 8000d2c:	3304      	adds	r3, #4
 8000d2e:	601a      	str	r2, [r3, #0]
 8000d30:	46c0      	nop			; (mov r8, r8)
 8000d32:	46bd      	mov	sp, r7
 8000d34:	b003      	add	sp, #12
 8000d36:	bd90      	pop	{r4, r7, pc}
 8000d38:	e000e100 	.word	0xe000e100
 8000d3c:	e000ed00 	.word	0xe000ed00

08000d40 <SysTick_Config>:
 8000d40:	b580      	push	{r7, lr}
 8000d42:	b082      	sub	sp, #8
 8000d44:	af00      	add	r7, sp, #0
 8000d46:	6078      	str	r0, [r7, #4]
 8000d48:	687b      	ldr	r3, [r7, #4]
 8000d4a:	3b01      	subs	r3, #1
 8000d4c:	4a0c      	ldr	r2, [pc, #48]	; (8000d80 <SysTick_Config+0x40>)
 8000d4e:	4293      	cmp	r3, r2
 8000d50:	d901      	bls.n	8000d56 <SysTick_Config+0x16>
 8000d52:	2301      	movs	r3, #1
 8000d54:	e010      	b.n	8000d78 <SysTick_Config+0x38>
 8000d56:	4b0b      	ldr	r3, [pc, #44]	; (8000d84 <SysTick_Config+0x44>)
 8000d58:	687a      	ldr	r2, [r7, #4]
 8000d5a:	3a01      	subs	r2, #1
 8000d5c:	605a      	str	r2, [r3, #4]
 8000d5e:	2301      	movs	r3, #1
 8000d60:	425b      	negs	r3, r3
 8000d62:	2103      	movs	r1, #3
 8000d64:	0018      	movs	r0, r3
 8000d66:	f7ff ff7d 	bl	8000c64 <__NVIC_SetPriority>
 8000d6a:	4b06      	ldr	r3, [pc, #24]	; (8000d84 <SysTick_Config+0x44>)
 8000d6c:	2200      	movs	r2, #0
 8000d6e:	609a      	str	r2, [r3, #8]
 8000d70:	4b04      	ldr	r3, [pc, #16]	; (8000d84 <SysTick_Config+0x44>)
 8000d72:	2207      	movs	r2, #7
 8000d74:	601a      	str	r2, [r3, #0]
 8000d76:	2300      	movs	r3, #0
 8000d78:	0018      	movs	r0, r3
 8000d7a:	46bd      	mov	sp, r7
 8000d7c:	b002      	add	sp, #8
 8000d7e:	bd80      	pop	{r7, pc}
 8000d80:	00ffffff 	.word	0x00ffffff
 8000d84:	e000e010 	.word	0xe000e010

08000d88 <HAL_NVIC_SetPriority>:
 8000d88:	b580      	push	{r7, lr}
 8000d8a:	b084      	sub	sp, #16
 8000d8c:	af00      	add	r7, sp, #0
 8000d8e:	60b9      	str	r1, [r7, #8]
 8000d90:	607a      	str	r2, [r7, #4]
 8000d92:	210f      	movs	r1, #15
 8000d94:	187b      	adds	r3, r7, r1
 8000d96:	1c02      	adds	r2, r0, #0
 8000d98:	701a      	strb	r2, [r3, #0]
 8000d9a:	68ba      	ldr	r2, [r7, #8]
 8000d9c:	187b      	adds	r3, r7, r1
 8000d9e:	781b      	ldrb	r3, [r3, #0]
 8000da0:	b25b      	sxtb	r3, r3
 8000da2:	0011      	movs	r1, r2
 8000da4:	0018      	movs	r0, r3
 8000da6:	f7ff ff5d 	bl	8000c64 <__NVIC_SetPriority>
 8000daa:	46c0      	nop			; (mov r8, r8)
 8000dac:	46bd      	mov	sp, r7
 8000dae:	b004      	add	sp, #16
 8000db0:	bd80      	pop	{r7, pc}

08000db2 <HAL_SYSTICK_Config>:
 8000db2:	b580      	push	{r7, lr}
 8000db4:	b082      	sub	sp, #8
 8000db6:	af00      	add	r7, sp, #0
 8000db8:	6078      	str	r0, [r7, #4]
 8000dba:	687b      	ldr	r3, [r7, #4]
 8000dbc:	0018      	movs	r0, r3
 8000dbe:	f7ff ffbf 	bl	8000d40 <SysTick_Config>
 8000dc2:	0003      	movs	r3, r0
 8000dc4:	0018      	movs	r0, r3
 8000dc6:	46bd      	mov	sp, r7
 8000dc8:	b002      	add	sp, #8
 8000dca:	bd80      	pop	{r7, pc}

08000dcc <HAL_GPIO_Init>:
 8000dcc:	b580      	push	{r7, lr}
 8000dce:	b086      	sub	sp, #24
 8000dd0:	af00      	add	r7, sp, #0
 8000dd2:	6078      	str	r0, [r7, #4]
 8000dd4:	6039      	str	r1, [r7, #0]
 8000dd6:	2300      	movs	r3, #0
 8000dd8:	617b      	str	r3, [r7, #20]
 8000dda:	e14f      	b.n	800107c <HAL_GPIO_Init+0x2b0>
 8000ddc:	683b      	ldr	r3, [r7, #0]
 8000dde:	681b      	ldr	r3, [r3, #0]
 8000de0:	2101      	movs	r1, #1
 8000de2:	697a      	ldr	r2, [r7, #20]
 8000de4:	4091      	lsls	r1, r2
 8000de6:	000a      	movs	r2, r1
 8000de8:	4013      	ands	r3, r2
 8000dea:	60fb      	str	r3, [r7, #12]
 8000dec:	68fb      	ldr	r3, [r7, #12]
 8000dee:	2b00      	cmp	r3, #0
 8000df0:	d100      	bne.n	8000df4 <HAL_GPIO_Init+0x28>
 8000df2:	e140      	b.n	8001076 <HAL_GPIO_Init+0x2aa>
 8000df4:	683b      	ldr	r3, [r7, #0]
 8000df6:	685b      	ldr	r3, [r3, #4]
 8000df8:	2b02      	cmp	r3, #2
 8000dfa:	d003      	beq.n	8000e04 <HAL_GPIO_Init+0x38>
 8000dfc:	683b      	ldr	r3, [r7, #0]
 8000dfe:	685b      	ldr	r3, [r3, #4]
 8000e00:	2b12      	cmp	r3, #18
 8000e02:	d123      	bne.n	8000e4c <HAL_GPIO_Init+0x80>
 8000e04:	697b      	ldr	r3, [r7, #20]
 8000e06:	08da      	lsrs	r2, r3, #3
 8000e08:	687b      	ldr	r3, [r7, #4]
 8000e0a:	3208      	adds	r2, #8
 8000e0c:	0092      	lsls	r2, r2, #2
 8000e0e:	58d3      	ldr	r3, [r2, r3]
 8000e10:	613b      	str	r3, [r7, #16]
 8000e12:	697b      	ldr	r3, [r7, #20]
 8000e14:	2207      	movs	r2, #7
 8000e16:	4013      	ands	r3, r2
 8000e18:	009b      	lsls	r3, r3, #2
 8000e1a:	220f      	movs	r2, #15
 8000e1c:	409a      	lsls	r2, r3
 8000e1e:	0013      	movs	r3, r2
 8000e20:	43da      	mvns	r2, r3
 8000e22:	693b      	ldr	r3, [r7, #16]
 8000e24:	4013      	ands	r3, r2
 8000e26:	613b      	str	r3, [r7, #16]
 8000e28:	683b      	ldr	r3, [r7, #0]
 8000e2a:	691a      	ldr	r2, [r3, #16]
 8000e2c:	697b      	ldr	r3, [r7, #20]
 8000e2e:	2107      	movs	r1, #7
 8000e30:	400b      	ands	r3, r1
 8000e32:	009b      	lsls	r3, r3, #2
 8000e34:	409a      	lsls	r2, r3
 8000e36:	0013      	movs	r3, r2
 8000e38:	693a      	ldr	r2, [r7, #16]
 8000e3a:	4313      	orrs	r3, r2
 8000e3c:	613b      	str	r3, [r7, #16]
 8000e3e:	697b      	ldr	r3, [r7, #20]
 8000e40:	08da      	lsrs	r2, r3, #3
 8000e42:	687b      	ldr	r3, [r7, #4]
 8000e44:	3208      	adds	r2, #8
 8000e46:	0092      	lsls	r2, r2, #2
 8000e48:	6939      	ldr	r1, [r7, #16]
 8000e4a:	50d1      	str	r1, [r2, r3]
 8000e4c:	687b      	ldr	r3, [r7, #4]
 8000e4e:	681b      	ldr	r3, [r3, #0]
 8000e50:	613b      	str	r3, [r7, #16]
 8000e52:	697b      	ldr	r3, [r7, #20]
 8000e54:	005b      	lsls	r3, r3, #1
 8000e56:	2203      	movs	r2, #3
 8000e58:	409a      	lsls	r2, r3
 8000e5a:	0013      	movs	r3, r2
 8000e5c:	43da      	mvns	r2, r3
 8000e5e:	693b      	ldr	r3, [r7, #16]
 8000e60:	4013      	ands	r3, r2
 8000e62:	613b      	str	r3, [r7, #16]
 8000e64:	683b      	ldr	r3, [r7, #0]
 8000e66:	685b      	ldr	r3, [r3, #4]
 8000e68:	2203      	movs	r2, #3
 8000e6a:	401a      	ands	r2, r3
 8000e6c:	697b      	ldr	r3, [r7, #20]
 8000e6e:	005b      	lsls	r3, r3, #1
 8000e70:	409a      	lsls	r2, r3
 8000e72:	0013      	movs	r3, r2
 8000e74:	693a      	ldr	r2, [r7, #16]
 8000e76:	4313      	orrs	r3, r2
 8000e78:	613b      	str	r3, [r7, #16]
 8000e7a:	687b      	ldr	r3, [r7, #4]
 8000e7c:	693a      	ldr	r2, [r7, #16]
 8000e7e:	601a      	str	r2, [r3, #0]
 8000e80:	683b      	ldr	r3, [r7, #0]
 8000e82:	685b      	ldr	r3, [r3, #4]
 8000e84:	2b01      	cmp	r3, #1
 8000e86:	d00b      	beq.n	8000ea0 <HAL_GPIO_Init+0xd4>
 8000e88:	683b      	ldr	r3, [r7, #0]
 8000e8a:	685b      	ldr	r3, [r3, #4]
 8000e8c:	2b02      	cmp	r3, #2
 8000e8e:	d007      	beq.n	8000ea0 <HAL_GPIO_Init+0xd4>
 8000e90:	683b      	ldr	r3, [r7, #0]
 8000e92:	685b      	ldr	r3, [r3, #4]
 8000e94:	2b11      	cmp	r3, #17
 8000e96:	d003      	beq.n	8000ea0 <HAL_GPIO_Init+0xd4>
 8000e98:	683b      	ldr	r3, [r7, #0]
 8000e9a:	685b      	ldr	r3, [r3, #4]
 8000e9c:	2b12      	cmp	r3, #18
 8000e9e:	d130      	bne.n	8000f02 <HAL_GPIO_Init+0x136>
 8000ea0:	687b      	ldr	r3, [r7, #4]
 8000ea2:	689b      	ldr	r3, [r3, #8]
 8000ea4:	613b      	str	r3, [r7, #16]
 8000ea6:	697b      	ldr	r3, [r7, #20]
 8000ea8:	005b      	lsls	r3, r3, #1
 8000eaa:	2203      	movs	r2, #3
 8000eac:	409a      	lsls	r2, r3
 8000eae:	0013      	movs	r3, r2
 8000eb0:	43da      	mvns	r2, r3
 8000eb2:	693b      	ldr	r3, [r7, #16]
 8000eb4:	4013      	ands	r3, r2
 8000eb6:	613b      	str	r3, [r7, #16]
 8000eb8:	683b      	ldr	r3, [r7, #0]
 8000eba:	68da      	ldr	r2, [r3, #12]
 8000ebc:	697b      	ldr	r3, [r7, #20]
 8000ebe:	005b      	lsls	r3, r3, #1
 8000ec0:	409a      	lsls	r2, r3
 8000ec2:	0013      	movs	r3, r2
 8000ec4:	693a      	ldr	r2, [r7, #16]
 8000ec6:	4313      	orrs	r3, r2
 8000ec8:	613b      	str	r3, [r7, #16]
 8000eca:	687b      	ldr	r3, [r7, #4]
 8000ecc:	693a      	ldr	r2, [r7, #16]
 8000ece:	609a      	str	r2, [r3, #8]
 8000ed0:	687b      	ldr	r3, [r7, #4]
 8000ed2:	685b      	ldr	r3, [r3, #4]
 8000ed4:	613b      	str	r3, [r7, #16]
 8000ed6:	2201      	movs	r2, #1
 8000ed8:	697b      	ldr	r3, [r7, #20]
 8000eda:	409a      	lsls	r2, r3
 8000edc:	0013      	movs	r3, r2
 8000ede:	43da      	mvns	r2, r3
 8000ee0:	693b      	ldr	r3, [r7, #16]
 8000ee2:	4013      	ands	r3, r2
 8000ee4:	613b      	str	r3, [r7, #16]
 8000ee6:	683b      	ldr	r3, [r7, #0]
 8000ee8:	685b      	ldr	r3, [r3, #4]
 8000eea:	091b      	lsrs	r3, r3, #4
 8000eec:	2201      	movs	r2, #1
 8000eee:	401a      	ands	r2, r3
 8000ef0:	697b      	ldr	r3, [r7, #20]
 8000ef2:	409a      	lsls	r2, r3
 8000ef4:	0013      	movs	r3, r2
 8000ef6:	693a      	ldr	r2, [r7, #16]
 8000ef8:	4313      	orrs	r3, r2
 8000efa:	613b      	str	r3, [r7, #16]
 8000efc:	687b      	ldr	r3, [r7, #4]
 8000efe:	693a      	ldr	r2, [r7, #16]
 8000f00:	605a      	str	r2, [r3, #4]
 8000f02:	687b      	ldr	r3, [r7, #4]
 8000f04:	68db      	ldr	r3, [r3, #12]
 8000f06:	613b      	str	r3, [r7, #16]
 8000f08:	697b      	ldr	r3, [r7, #20]
 8000f0a:	005b      	lsls	r3, r3, #1
 8000f0c:	2203      	movs	r2, #3
 8000f0e:	409a      	lsls	r2, r3
 8000f10:	0013      	movs	r3, r2
 8000f12:	43da      	mvns	r2, r3
 8000f14:	693b      	ldr	r3, [r7, #16]
 8000f16:	4013      	ands	r3, r2
 8000f18:	613b      	str	r3, [r7, #16]
 8000f1a:	683b      	ldr	r3, [r7, #0]
 8000f1c:	689a      	ldr	r2, [r3, #8]
 8000f1e:	697b      	ldr	r3, [r7, #20]
 8000f20:	005b      	lsls	r3, r3, #1
 8000f22:	409a      	lsls	r2, r3
 8000f24:	0013      	movs	r3, r2
 8000f26:	693a      	ldr	r2, [r7, #16]
 8000f28:	4313      	orrs	r3, r2
 8000f2a:	613b      	str	r3, [r7, #16]
 8000f2c:	687b      	ldr	r3, [r7, #4]
 8000f2e:	693a      	ldr	r2, [r7, #16]
 8000f30:	60da      	str	r2, [r3, #12]
 8000f32:	683b      	ldr	r3, [r7, #0]
 8000f34:	685a      	ldr	r2, [r3, #4]
 8000f36:	2380      	movs	r3, #128	; 0x80
 8000f38:	055b      	lsls	r3, r3, #21
 8000f3a:	4013      	ands	r3, r2
 8000f3c:	d100      	bne.n	8000f40 <HAL_GPIO_Init+0x174>
 8000f3e:	e09a      	b.n	8001076 <HAL_GPIO_Init+0x2aa>
 8000f40:	4b54      	ldr	r3, [pc, #336]	; (8001094 <HAL_GPIO_Init+0x2c8>)
 8000f42:	699a      	ldr	r2, [r3, #24]
 8000f44:	4b53      	ldr	r3, [pc, #332]	; (8001094 <HAL_GPIO_Init+0x2c8>)
 8000f46:	2101      	movs	r1, #1
 8000f48:	430a      	orrs	r2, r1
 8000f4a:	619a      	str	r2, [r3, #24]
 8000f4c:	4b51      	ldr	r3, [pc, #324]	; (8001094 <HAL_GPIO_Init+0x2c8>)
 8000f4e:	699b      	ldr	r3, [r3, #24]
 8000f50:	2201      	movs	r2, #1
 8000f52:	4013      	ands	r3, r2
 8000f54:	60bb      	str	r3, [r7, #8]
 8000f56:	68bb      	ldr	r3, [r7, #8]
 8000f58:	4a4f      	ldr	r2, [pc, #316]	; (8001098 <HAL_GPIO_Init+0x2cc>)
 8000f5a:	697b      	ldr	r3, [r7, #20]
 8000f5c:	089b      	lsrs	r3, r3, #2
 8000f5e:	3302      	adds	r3, #2
 8000f60:	009b      	lsls	r3, r3, #2
 8000f62:	589b      	ldr	r3, [r3, r2]
 8000f64:	613b      	str	r3, [r7, #16]
 8000f66:	697b      	ldr	r3, [r7, #20]
 8000f68:	2203      	movs	r2, #3
 8000f6a:	4013      	ands	r3, r2
 8000f6c:	009b      	lsls	r3, r3, #2
 8000f6e:	220f      	movs	r2, #15
 8000f70:	409a      	lsls	r2, r3
 8000f72:	0013      	movs	r3, r2
 8000f74:	43da      	mvns	r2, r3
 8000f76:	693b      	ldr	r3, [r7, #16]
 8000f78:	4013      	ands	r3, r2
 8000f7a:	613b      	str	r3, [r7, #16]
 8000f7c:	687a      	ldr	r2, [r7, #4]
 8000f7e:	2390      	movs	r3, #144	; 0x90
 8000f80:	05db      	lsls	r3, r3, #23
 8000f82:	429a      	cmp	r2, r3
 8000f84:	d013      	beq.n	8000fae <HAL_GPIO_Init+0x1e2>
 8000f86:	687b      	ldr	r3, [r7, #4]
 8000f88:	4a44      	ldr	r2, [pc, #272]	; (800109c <HAL_GPIO_Init+0x2d0>)
 8000f8a:	4293      	cmp	r3, r2
 8000f8c:	d00d      	beq.n	8000faa <HAL_GPIO_Init+0x1de>
 8000f8e:	687b      	ldr	r3, [r7, #4]
 8000f90:	4a43      	ldr	r2, [pc, #268]	; (80010a0 <HAL_GPIO_Init+0x2d4>)
 8000f92:	4293      	cmp	r3, r2
 8000f94:	d007      	beq.n	8000fa6 <HAL_GPIO_Init+0x1da>
 8000f96:	687b      	ldr	r3, [r7, #4]
 8000f98:	4a42      	ldr	r2, [pc, #264]	; (80010a4 <HAL_GPIO_Init+0x2d8>)
 8000f9a:	4293      	cmp	r3, r2
 8000f9c:	d101      	bne.n	8000fa2 <HAL_GPIO_Init+0x1d6>
 8000f9e:	2303      	movs	r3, #3
 8000fa0:	e006      	b.n	8000fb0 <HAL_GPIO_Init+0x1e4>
 8000fa2:	2305      	movs	r3, #5
 8000fa4:	e004      	b.n	8000fb0 <HAL_GPIO_Init+0x1e4>
 8000fa6:	2302      	movs	r3, #2
 8000fa8:	e002      	b.n	8000fb0 <HAL_GPIO_Init+0x1e4>
 8000faa:	2301      	movs	r3, #1
 8000fac:	e000      	b.n	8000fb0 <HAL_GPIO_Init+0x1e4>
 8000fae:	2300      	movs	r3, #0
 8000fb0:	697a      	ldr	r2, [r7, #20]
 8000fb2:	2103      	movs	r1, #3
 8000fb4:	400a      	ands	r2, r1
 8000fb6:	0092      	lsls	r2, r2, #2
 8000fb8:	4093      	lsls	r3, r2
 8000fba:	693a      	ldr	r2, [r7, #16]
 8000fbc:	4313      	orrs	r3, r2
 8000fbe:	613b      	str	r3, [r7, #16]
 8000fc0:	4935      	ldr	r1, [pc, #212]	; (8001098 <HAL_GPIO_Init+0x2cc>)
 8000fc2:	697b      	ldr	r3, [r7, #20]
 8000fc4:	089b      	lsrs	r3, r3, #2
 8000fc6:	3302      	adds	r3, #2
 8000fc8:	009b      	lsls	r3, r3, #2
 8000fca:	693a      	ldr	r2, [r7, #16]
 8000fcc:	505a      	str	r2, [r3, r1]
 8000fce:	4b36      	ldr	r3, [pc, #216]	; (80010a8 <HAL_GPIO_Init+0x2dc>)
 8000fd0:	681b      	ldr	r3, [r3, #0]
 8000fd2:	613b      	str	r3, [r7, #16]
 8000fd4:	68fb      	ldr	r3, [r7, #12]
 8000fd6:	43da      	mvns	r2, r3
 8000fd8:	693b      	ldr	r3, [r7, #16]
 8000fda:	4013      	ands	r3, r2
 8000fdc:	613b      	str	r3, [r7, #16]
 8000fde:	683b      	ldr	r3, [r7, #0]
 8000fe0:	685a      	ldr	r2, [r3, #4]
 8000fe2:	2380      	movs	r3, #128	; 0x80
 8000fe4:	025b      	lsls	r3, r3, #9
 8000fe6:	4013      	ands	r3, r2
 8000fe8:	d003      	beq.n	8000ff2 <HAL_GPIO_Init+0x226>
 8000fea:	693a      	ldr	r2, [r7, #16]
 8000fec:	68fb      	ldr	r3, [r7, #12]
 8000fee:	4313      	orrs	r3, r2
 8000ff0:	613b      	str	r3, [r7, #16]
 8000ff2:	4b2d      	ldr	r3, [pc, #180]	; (80010a8 <HAL_GPIO_Init+0x2dc>)
 8000ff4:	693a      	ldr	r2, [r7, #16]
 8000ff6:	601a      	str	r2, [r3, #0]
 8000ff8:	4b2b      	ldr	r3, [pc, #172]	; (80010a8 <HAL_GPIO_Init+0x2dc>)
 8000ffa:	685b      	ldr	r3, [r3, #4]
 8000ffc:	613b      	str	r3, [r7, #16]
 8000ffe:	68fb      	ldr	r3, [r7, #12]
 8001000:	43da      	mvns	r2, r3
 8001002:	693b      	ldr	r3, [r7, #16]
 8001004:	4013      	ands	r3, r2
 8001006:	613b      	str	r3, [r7, #16]
 8001008:	683b      	ldr	r3, [r7, #0]
 800100a:	685a      	ldr	r2, [r3, #4]
 800100c:	2380      	movs	r3, #128	; 0x80
 800100e:	029b      	lsls	r3, r3, #10
 8001010:	4013      	ands	r3, r2
 8001012:	d003      	beq.n	800101c <HAL_GPIO_Init+0x250>
 8001014:	693a      	ldr	r2, [r7, #16]
 8001016:	68fb      	ldr	r3, [r7, #12]
 8001018:	4313      	orrs	r3, r2
 800101a:	613b      	str	r3, [r7, #16]
 800101c:	4b22      	ldr	r3, [pc, #136]	; (80010a8 <HAL_GPIO_Init+0x2dc>)
 800101e:	693a      	ldr	r2, [r7, #16]
 8001020:	605a      	str	r2, [r3, #4]
 8001022:	4b21      	ldr	r3, [pc, #132]	; (80010a8 <HAL_GPIO_Init+0x2dc>)
 8001024:	689b      	ldr	r3, [r3, #8]
 8001026:	613b      	str	r3, [r7, #16]
 8001028:	68fb      	ldr	r3, [r7, #12]
 800102a:	43da      	mvns	r2, r3
 800102c:	693b      	ldr	r3, [r7, #16]
 800102e:	4013      	ands	r3, r2
 8001030:	613b      	str	r3, [r7, #16]
 8001032:	683b      	ldr	r3, [r7, #0]
 8001034:	685a      	ldr	r2, [r3, #4]
 8001036:	2380      	movs	r3, #128	; 0x80
 8001038:	035b      	lsls	r3, r3, #13
 800103a:	4013      	ands	r3, r2
 800103c:	d003      	beq.n	8001046 <HAL_GPIO_Init+0x27a>
 800103e:	693a      	ldr	r2, [r7, #16]
 8001040:	68fb      	ldr	r3, [r7, #12]
 8001042:	4313      	orrs	r3, r2
 8001044:	613b      	str	r3, [r7, #16]
 8001046:	4b18      	ldr	r3, [pc, #96]	; (80010a8 <HAL_GPIO_Init+0x2dc>)
 8001048:	693a      	ldr	r2, [r7, #16]
 800104a:	609a      	str	r2, [r3, #8]
 800104c:	4b16      	ldr	r3, [pc, #88]	; (80010a8 <HAL_GPIO_Init+0x2dc>)
 800104e:	68db      	ldr	r3, [r3, #12]
 8001050:	613b      	str	r3, [r7, #16]
 8001052:	68fb      	ldr	r3, [r7, #12]
 8001054:	43da      	mvns	r2, r3
 8001056:	693b      	ldr	r3, [r7, #16]
 8001058:	4013      	ands	r3, r2
 800105a:	613b      	str	r3, [r7, #16]
 800105c:	683b      	ldr	r3, [r7, #0]
 800105e:	685a      	ldr	r2, [r3, #4]
 8001060:	2380      	movs	r3, #128	; 0x80
 8001062:	039b      	lsls	r3, r3, #14
 8001064:	4013      	ands	r3, r2
 8001066:	d003      	beq.n	8001070 <HAL_GPIO_Init+0x2a4>
 8001068:	693a      	ldr	r2, [r7, #16]
 800106a:	68fb      	ldr	r3, [r7, #12]
 800106c:	4313      	orrs	r3, r2
 800106e:	613b      	str	r3, [r7, #16]
 8001070:	4b0d      	ldr	r3, [pc, #52]	; (80010a8 <HAL_GPIO_Init+0x2dc>)
 8001072:	693a      	ldr	r2, [r7, #16]
 8001074:	60da      	str	r2, [r3, #12]
 8001076:	697b      	ldr	r3, [r7, #20]
 8001078:	3301      	adds	r3, #1
 800107a:	617b      	str	r3, [r7, #20]
 800107c:	683b      	ldr	r3, [r7, #0]
 800107e:	681a      	ldr	r2, [r3, #0]
 8001080:	697b      	ldr	r3, [r7, #20]
 8001082:	40da      	lsrs	r2, r3
 8001084:	1e13      	subs	r3, r2, #0
 8001086:	d000      	beq.n	800108a <HAL_GPIO_Init+0x2be>
 8001088:	e6a8      	b.n	8000ddc <HAL_GPIO_Init+0x10>
 800108a:	46c0      	nop			; (mov r8, r8)
 800108c:	46bd      	mov	sp, r7
 800108e:	b006      	add	sp, #24
 8001090:	bd80      	pop	{r7, pc}
 8001092:	46c0      	nop			; (mov r8, r8)
 8001094:	40021000 	.word	0x40021000
 8001098:	40010000 	.word	0x40010000
 800109c:	48000400 	.word	0x48000400
 80010a0:	48000800 	.word	0x48000800
 80010a4:	48000c00 	.word	0x48000c00
 80010a8:	40010400 	.word	0x40010400

080010ac <HAL_GPIO_ReadPin>:
 80010ac:	b580      	push	{r7, lr}
 80010ae:	b084      	sub	sp, #16
 80010b0:	af00      	add	r7, sp, #0
 80010b2:	6078      	str	r0, [r7, #4]
 80010b4:	000a      	movs	r2, r1
 80010b6:	1cbb      	adds	r3, r7, #2
 80010b8:	801a      	strh	r2, [r3, #0]
 80010ba:	687b      	ldr	r3, [r7, #4]
 80010bc:	691b      	ldr	r3, [r3, #16]
 80010be:	1cba      	adds	r2, r7, #2
 80010c0:	8812      	ldrh	r2, [r2, #0]
 80010c2:	4013      	ands	r3, r2
 80010c4:	d004      	beq.n	80010d0 <HAL_GPIO_ReadPin+0x24>
 80010c6:	230f      	movs	r3, #15
 80010c8:	18fb      	adds	r3, r7, r3
 80010ca:	2201      	movs	r2, #1
 80010cc:	701a      	strb	r2, [r3, #0]
 80010ce:	e003      	b.n	80010d8 <HAL_GPIO_ReadPin+0x2c>
 80010d0:	230f      	movs	r3, #15
 80010d2:	18fb      	adds	r3, r7, r3
 80010d4:	2200      	movs	r2, #0
 80010d6:	701a      	strb	r2, [r3, #0]
 80010d8:	230f      	movs	r3, #15
 80010da:	18fb      	adds	r3, r7, r3
 80010dc:	781b      	ldrb	r3, [r3, #0]
 80010de:	0018      	movs	r0, r3
 80010e0:	46bd      	mov	sp, r7
 80010e2:	b004      	add	sp, #16
 80010e4:	bd80      	pop	{r7, pc}

080010e6 <HAL_GPIO_WritePin>:
 80010e6:	b580      	push	{r7, lr}
 80010e8:	b082      	sub	sp, #8
 80010ea:	af00      	add	r7, sp, #0
 80010ec:	6078      	str	r0, [r7, #4]
 80010ee:	0008      	movs	r0, r1
 80010f0:	0011      	movs	r1, r2
 80010f2:	1cbb      	adds	r3, r7, #2
 80010f4:	1c02      	adds	r2, r0, #0
 80010f6:	801a      	strh	r2, [r3, #0]
 80010f8:	1c7b      	adds	r3, r7, #1
 80010fa:	1c0a      	adds	r2, r1, #0
 80010fc:	701a      	strb	r2, [r3, #0]
 80010fe:	1c7b      	adds	r3, r7, #1
 8001100:	781b      	ldrb	r3, [r3, #0]
 8001102:	2b00      	cmp	r3, #0
 8001104:	d004      	beq.n	8001110 <HAL_GPIO_WritePin+0x2a>
 8001106:	1cbb      	adds	r3, r7, #2
 8001108:	881a      	ldrh	r2, [r3, #0]
 800110a:	687b      	ldr	r3, [r7, #4]
 800110c:	619a      	str	r2, [r3, #24]
 800110e:	e003      	b.n	8001118 <HAL_GPIO_WritePin+0x32>
 8001110:	1cbb      	adds	r3, r7, #2
 8001112:	881a      	ldrh	r2, [r3, #0]
 8001114:	687b      	ldr	r3, [r7, #4]
 8001116:	629a      	str	r2, [r3, #40]	; 0x28
 8001118:	46c0      	nop			; (mov r8, r8)
 800111a:	46bd      	mov	sp, r7
 800111c:	b002      	add	sp, #8
 800111e:	bd80      	pop	{r7, pc}

08001120 <HAL_RCC_OscConfig>:
 8001120:	b580      	push	{r7, lr}
 8001122:	b088      	sub	sp, #32
 8001124:	af00      	add	r7, sp, #0
 8001126:	6078      	str	r0, [r7, #4]
 8001128:	687b      	ldr	r3, [r7, #4]
 800112a:	2b00      	cmp	r3, #0
 800112c:	d101      	bne.n	8001132 <HAL_RCC_OscConfig+0x12>
 800112e:	2301      	movs	r3, #1
 8001130:	e303      	b.n	800173a <HAL_RCC_OscConfig+0x61a>
 8001132:	687b      	ldr	r3, [r7, #4]
 8001134:	681b      	ldr	r3, [r3, #0]
 8001136:	2201      	movs	r2, #1
 8001138:	4013      	ands	r3, r2
 800113a:	d100      	bne.n	800113e <HAL_RCC_OscConfig+0x1e>
 800113c:	e08d      	b.n	800125a <HAL_RCC_OscConfig+0x13a>
 800113e:	4bc4      	ldr	r3, [pc, #784]	; (8001450 <HAL_RCC_OscConfig+0x330>)
 8001140:	685b      	ldr	r3, [r3, #4]
 8001142:	220c      	movs	r2, #12
 8001144:	4013      	ands	r3, r2
 8001146:	2b04      	cmp	r3, #4
 8001148:	d00e      	beq.n	8001168 <HAL_RCC_OscConfig+0x48>
 800114a:	4bc1      	ldr	r3, [pc, #772]	; (8001450 <HAL_RCC_OscConfig+0x330>)
 800114c:	685b      	ldr	r3, [r3, #4]
 800114e:	220c      	movs	r2, #12
 8001150:	4013      	ands	r3, r2
 8001152:	2b08      	cmp	r3, #8
 8001154:	d116      	bne.n	8001184 <HAL_RCC_OscConfig+0x64>
 8001156:	4bbe      	ldr	r3, [pc, #760]	; (8001450 <HAL_RCC_OscConfig+0x330>)
 8001158:	685a      	ldr	r2, [r3, #4]
 800115a:	2380      	movs	r3, #128	; 0x80
 800115c:	025b      	lsls	r3, r3, #9
 800115e:	401a      	ands	r2, r3
 8001160:	2380      	movs	r3, #128	; 0x80
 8001162:	025b      	lsls	r3, r3, #9
 8001164:	429a      	cmp	r2, r3
 8001166:	d10d      	bne.n	8001184 <HAL_RCC_OscConfig+0x64>
 8001168:	4bb9      	ldr	r3, [pc, #740]	; (8001450 <HAL_RCC_OscConfig+0x330>)
 800116a:	681a      	ldr	r2, [r3, #0]
 800116c:	2380      	movs	r3, #128	; 0x80
 800116e:	029b      	lsls	r3, r3, #10
 8001170:	4013      	ands	r3, r2
 8001172:	d100      	bne.n	8001176 <HAL_RCC_OscConfig+0x56>
 8001174:	e070      	b.n	8001258 <HAL_RCC_OscConfig+0x138>
 8001176:	687b      	ldr	r3, [r7, #4]
 8001178:	685b      	ldr	r3, [r3, #4]
 800117a:	2b00      	cmp	r3, #0
 800117c:	d000      	beq.n	8001180 <HAL_RCC_OscConfig+0x60>
 800117e:	e06b      	b.n	8001258 <HAL_RCC_OscConfig+0x138>
 8001180:	2301      	movs	r3, #1
 8001182:	e2da      	b.n	800173a <HAL_RCC_OscConfig+0x61a>
 8001184:	687b      	ldr	r3, [r7, #4]
 8001186:	685b      	ldr	r3, [r3, #4]
 8001188:	2b01      	cmp	r3, #1
 800118a:	d107      	bne.n	800119c <HAL_RCC_OscConfig+0x7c>
 800118c:	4bb0      	ldr	r3, [pc, #704]	; (8001450 <HAL_RCC_OscConfig+0x330>)
 800118e:	681a      	ldr	r2, [r3, #0]
 8001190:	4baf      	ldr	r3, [pc, #700]	; (8001450 <HAL_RCC_OscConfig+0x330>)
 8001192:	2180      	movs	r1, #128	; 0x80
 8001194:	0249      	lsls	r1, r1, #9
 8001196:	430a      	orrs	r2, r1
 8001198:	601a      	str	r2, [r3, #0]
 800119a:	e02f      	b.n	80011fc <HAL_RCC_OscConfig+0xdc>
 800119c:	687b      	ldr	r3, [r7, #4]
 800119e:	685b      	ldr	r3, [r3, #4]
 80011a0:	2b00      	cmp	r3, #0
 80011a2:	d10c      	bne.n	80011be <HAL_RCC_OscConfig+0x9e>
 80011a4:	4baa      	ldr	r3, [pc, #680]	; (8001450 <HAL_RCC_OscConfig+0x330>)
 80011a6:	681a      	ldr	r2, [r3, #0]
 80011a8:	4ba9      	ldr	r3, [pc, #676]	; (8001450 <HAL_RCC_OscConfig+0x330>)
 80011aa:	49aa      	ldr	r1, [pc, #680]	; (8001454 <HAL_RCC_OscConfig+0x334>)
 80011ac:	400a      	ands	r2, r1
 80011ae:	601a      	str	r2, [r3, #0]
 80011b0:	4ba7      	ldr	r3, [pc, #668]	; (8001450 <HAL_RCC_OscConfig+0x330>)
 80011b2:	681a      	ldr	r2, [r3, #0]
 80011b4:	4ba6      	ldr	r3, [pc, #664]	; (8001450 <HAL_RCC_OscConfig+0x330>)
 80011b6:	49a8      	ldr	r1, [pc, #672]	; (8001458 <HAL_RCC_OscConfig+0x338>)
 80011b8:	400a      	ands	r2, r1
 80011ba:	601a      	str	r2, [r3, #0]
 80011bc:	e01e      	b.n	80011fc <HAL_RCC_OscConfig+0xdc>
 80011be:	687b      	ldr	r3, [r7, #4]
 80011c0:	685b      	ldr	r3, [r3, #4]
 80011c2:	2b05      	cmp	r3, #5
 80011c4:	d10e      	bne.n	80011e4 <HAL_RCC_OscConfig+0xc4>
 80011c6:	4ba2      	ldr	r3, [pc, #648]	; (8001450 <HAL_RCC_OscConfig+0x330>)
 80011c8:	681a      	ldr	r2, [r3, #0]
 80011ca:	4ba1      	ldr	r3, [pc, #644]	; (8001450 <HAL_RCC_OscConfig+0x330>)
 80011cc:	2180      	movs	r1, #128	; 0x80
 80011ce:	02c9      	lsls	r1, r1, #11
 80011d0:	430a      	orrs	r2, r1
 80011d2:	601a      	str	r2, [r3, #0]
 80011d4:	4b9e      	ldr	r3, [pc, #632]	; (8001450 <HAL_RCC_OscConfig+0x330>)
 80011d6:	681a      	ldr	r2, [r3, #0]
 80011d8:	4b9d      	ldr	r3, [pc, #628]	; (8001450 <HAL_RCC_OscConfig+0x330>)
 80011da:	2180      	movs	r1, #128	; 0x80
 80011dc:	0249      	lsls	r1, r1, #9
 80011de:	430a      	orrs	r2, r1
 80011e0:	601a      	str	r2, [r3, #0]
 80011e2:	e00b      	b.n	80011fc <HAL_RCC_OscConfig+0xdc>
 80011e4:	4b9a      	ldr	r3, [pc, #616]	; (8001450 <HAL_RCC_OscConfig+0x330>)
 80011e6:	681a      	ldr	r2, [r3, #0]
 80011e8:	4b99      	ldr	r3, [pc, #612]	; (8001450 <HAL_RCC_OscConfig+0x330>)
 80011ea:	499a      	ldr	r1, [pc, #616]	; (8001454 <HAL_RCC_OscConfig+0x334>)
 80011ec:	400a      	ands	r2, r1
 80011ee:	601a      	str	r2, [r3, #0]
 80011f0:	4b97      	ldr	r3, [pc, #604]	; (8001450 <HAL_RCC_OscConfig+0x330>)
 80011f2:	681a      	ldr	r2, [r3, #0]
 80011f4:	4b96      	ldr	r3, [pc, #600]	; (8001450 <HAL_RCC_OscConfig+0x330>)
 80011f6:	4998      	ldr	r1, [pc, #608]	; (8001458 <HAL_RCC_OscConfig+0x338>)
 80011f8:	400a      	ands	r2, r1
 80011fa:	601a      	str	r2, [r3, #0]
 80011fc:	687b      	ldr	r3, [r7, #4]
 80011fe:	685b      	ldr	r3, [r3, #4]
 8001200:	2b00      	cmp	r3, #0
 8001202:	d014      	beq.n	800122e <HAL_RCC_OscConfig+0x10e>
 8001204:	f7ff fd02 	bl	8000c0c <HAL_GetTick>
 8001208:	0003      	movs	r3, r0
 800120a:	61bb      	str	r3, [r7, #24]
 800120c:	e008      	b.n	8001220 <HAL_RCC_OscConfig+0x100>
 800120e:	f7ff fcfd 	bl	8000c0c <HAL_GetTick>
 8001212:	0002      	movs	r2, r0
 8001214:	69bb      	ldr	r3, [r7, #24]
 8001216:	1ad3      	subs	r3, r2, r3
 8001218:	2b64      	cmp	r3, #100	; 0x64
 800121a:	d901      	bls.n	8001220 <HAL_RCC_OscConfig+0x100>
 800121c:	2303      	movs	r3, #3
 800121e:	e28c      	b.n	800173a <HAL_RCC_OscConfig+0x61a>
 8001220:	4b8b      	ldr	r3, [pc, #556]	; (8001450 <HAL_RCC_OscConfig+0x330>)
 8001222:	681a      	ldr	r2, [r3, #0]
 8001224:	2380      	movs	r3, #128	; 0x80
 8001226:	029b      	lsls	r3, r3, #10
 8001228:	4013      	ands	r3, r2
 800122a:	d0f0      	beq.n	800120e <HAL_RCC_OscConfig+0xee>
 800122c:	e015      	b.n	800125a <HAL_RCC_OscConfig+0x13a>
 800122e:	f7ff fced 	bl	8000c0c <HAL_GetTick>
 8001232:	0003      	movs	r3, r0
 8001234:	61bb      	str	r3, [r7, #24]
 8001236:	e008      	b.n	800124a <HAL_RCC_OscConfig+0x12a>
 8001238:	f7ff fce8 	bl	8000c0c <HAL_GetTick>
 800123c:	0002      	movs	r2, r0
 800123e:	69bb      	ldr	r3, [r7, #24]
 8001240:	1ad3      	subs	r3, r2, r3
 8001242:	2b64      	cmp	r3, #100	; 0x64
 8001244:	d901      	bls.n	800124a <HAL_RCC_OscConfig+0x12a>
 8001246:	2303      	movs	r3, #3
 8001248:	e277      	b.n	800173a <HAL_RCC_OscConfig+0x61a>
 800124a:	4b81      	ldr	r3, [pc, #516]	; (8001450 <HAL_RCC_OscConfig+0x330>)
 800124c:	681a      	ldr	r2, [r3, #0]
 800124e:	2380      	movs	r3, #128	; 0x80
 8001250:	029b      	lsls	r3, r3, #10
 8001252:	4013      	ands	r3, r2
 8001254:	d1f0      	bne.n	8001238 <HAL_RCC_OscConfig+0x118>
 8001256:	e000      	b.n	800125a <HAL_RCC_OscConfig+0x13a>
 8001258:	46c0      	nop			; (mov r8, r8)
 800125a:	687b      	ldr	r3, [r7, #4]
 800125c:	681b      	ldr	r3, [r3, #0]
 800125e:	2202      	movs	r2, #2
 8001260:	4013      	ands	r3, r2
 8001262:	d100      	bne.n	8001266 <HAL_RCC_OscConfig+0x146>
 8001264:	e069      	b.n	800133a <HAL_RCC_OscConfig+0x21a>
 8001266:	4b7a      	ldr	r3, [pc, #488]	; (8001450 <HAL_RCC_OscConfig+0x330>)
 8001268:	685b      	ldr	r3, [r3, #4]
 800126a:	220c      	movs	r2, #12
 800126c:	4013      	ands	r3, r2
 800126e:	d00b      	beq.n	8001288 <HAL_RCC_OscConfig+0x168>
 8001270:	4b77      	ldr	r3, [pc, #476]	; (8001450 <HAL_RCC_OscConfig+0x330>)
 8001272:	685b      	ldr	r3, [r3, #4]
 8001274:	220c      	movs	r2, #12
 8001276:	4013      	ands	r3, r2
 8001278:	2b08      	cmp	r3, #8
 800127a:	d11c      	bne.n	80012b6 <HAL_RCC_OscConfig+0x196>
 800127c:	4b74      	ldr	r3, [pc, #464]	; (8001450 <HAL_RCC_OscConfig+0x330>)
 800127e:	685a      	ldr	r2, [r3, #4]
 8001280:	2380      	movs	r3, #128	; 0x80
 8001282:	025b      	lsls	r3, r3, #9
 8001284:	4013      	ands	r3, r2
 8001286:	d116      	bne.n	80012b6 <HAL_RCC_OscConfig+0x196>
 8001288:	4b71      	ldr	r3, [pc, #452]	; (8001450 <HAL_RCC_OscConfig+0x330>)
 800128a:	681b      	ldr	r3, [r3, #0]
 800128c:	2202      	movs	r2, #2
 800128e:	4013      	ands	r3, r2
 8001290:	d005      	beq.n	800129e <HAL_RCC_OscConfig+0x17e>
 8001292:	687b      	ldr	r3, [r7, #4]
 8001294:	68db      	ldr	r3, [r3, #12]
 8001296:	2b01      	cmp	r3, #1
 8001298:	d001      	beq.n	800129e <HAL_RCC_OscConfig+0x17e>
 800129a:	2301      	movs	r3, #1
 800129c:	e24d      	b.n	800173a <HAL_RCC_OscConfig+0x61a>
 800129e:	4b6c      	ldr	r3, [pc, #432]	; (8001450 <HAL_RCC_OscConfig+0x330>)
 80012a0:	681b      	ldr	r3, [r3, #0]
 80012a2:	22f8      	movs	r2, #248	; 0xf8
 80012a4:	4393      	bics	r3, r2
 80012a6:	0019      	movs	r1, r3
 80012a8:	687b      	ldr	r3, [r7, #4]
 80012aa:	691b      	ldr	r3, [r3, #16]
 80012ac:	00da      	lsls	r2, r3, #3
 80012ae:	4b68      	ldr	r3, [pc, #416]	; (8001450 <HAL_RCC_OscConfig+0x330>)
 80012b0:	430a      	orrs	r2, r1
 80012b2:	601a      	str	r2, [r3, #0]
 80012b4:	e041      	b.n	800133a <HAL_RCC_OscConfig+0x21a>
 80012b6:	687b      	ldr	r3, [r7, #4]
 80012b8:	68db      	ldr	r3, [r3, #12]
 80012ba:	2b00      	cmp	r3, #0
 80012bc:	d024      	beq.n	8001308 <HAL_RCC_OscConfig+0x1e8>
 80012be:	4b64      	ldr	r3, [pc, #400]	; (8001450 <HAL_RCC_OscConfig+0x330>)
 80012c0:	681a      	ldr	r2, [r3, #0]
 80012c2:	4b63      	ldr	r3, [pc, #396]	; (8001450 <HAL_RCC_OscConfig+0x330>)
 80012c4:	2101      	movs	r1, #1
 80012c6:	430a      	orrs	r2, r1
 80012c8:	601a      	str	r2, [r3, #0]
 80012ca:	f7ff fc9f 	bl	8000c0c <HAL_GetTick>
 80012ce:	0003      	movs	r3, r0
 80012d0:	61bb      	str	r3, [r7, #24]
 80012d2:	e008      	b.n	80012e6 <HAL_RCC_OscConfig+0x1c6>
 80012d4:	f7ff fc9a 	bl	8000c0c <HAL_GetTick>
 80012d8:	0002      	movs	r2, r0
 80012da:	69bb      	ldr	r3, [r7, #24]
 80012dc:	1ad3      	subs	r3, r2, r3
 80012de:	2b02      	cmp	r3, #2
 80012e0:	d901      	bls.n	80012e6 <HAL_RCC_OscConfig+0x1c6>
 80012e2:	2303      	movs	r3, #3
 80012e4:	e229      	b.n	800173a <HAL_RCC_OscConfig+0x61a>
 80012e6:	4b5a      	ldr	r3, [pc, #360]	; (8001450 <HAL_RCC_OscConfig+0x330>)
 80012e8:	681b      	ldr	r3, [r3, #0]
 80012ea:	2202      	movs	r2, #2
 80012ec:	4013      	ands	r3, r2
 80012ee:	d0f1      	beq.n	80012d4 <HAL_RCC_OscConfig+0x1b4>
 80012f0:	4b57      	ldr	r3, [pc, #348]	; (8001450 <HAL_RCC_OscConfig+0x330>)
 80012f2:	681b      	ldr	r3, [r3, #0]
 80012f4:	22f8      	movs	r2, #248	; 0xf8
 80012f6:	4393      	bics	r3, r2
 80012f8:	0019      	movs	r1, r3
 80012fa:	687b      	ldr	r3, [r7, #4]
 80012fc:	691b      	ldr	r3, [r3, #16]
 80012fe:	00da      	lsls	r2, r3, #3
 8001300:	4b53      	ldr	r3, [pc, #332]	; (8001450 <HAL_RCC_OscConfig+0x330>)
 8001302:	430a      	orrs	r2, r1
 8001304:	601a      	str	r2, [r3, #0]
 8001306:	e018      	b.n	800133a <HAL_RCC_OscConfig+0x21a>
 8001308:	4b51      	ldr	r3, [pc, #324]	; (8001450 <HAL_RCC_OscConfig+0x330>)
 800130a:	681a      	ldr	r2, [r3, #0]
 800130c:	4b50      	ldr	r3, [pc, #320]	; (8001450 <HAL_RCC_OscConfig+0x330>)
 800130e:	2101      	movs	r1, #1
 8001310:	438a      	bics	r2, r1
 8001312:	601a      	str	r2, [r3, #0]
 8001314:	f7ff fc7a 	bl	8000c0c <HAL_GetTick>
 8001318:	0003      	movs	r3, r0
 800131a:	61bb      	str	r3, [r7, #24]
 800131c:	e008      	b.n	8001330 <HAL_RCC_OscConfig+0x210>
 800131e:	f7ff fc75 	bl	8000c0c <HAL_GetTick>
 8001322:	0002      	movs	r2, r0
 8001324:	69bb      	ldr	r3, [r7, #24]
 8001326:	1ad3      	subs	r3, r2, r3
 8001328:	2b02      	cmp	r3, #2
 800132a:	d901      	bls.n	8001330 <HAL_RCC_OscConfig+0x210>
 800132c:	2303      	movs	r3, #3
 800132e:	e204      	b.n	800173a <HAL_RCC_OscConfig+0x61a>
 8001330:	4b47      	ldr	r3, [pc, #284]	; (8001450 <HAL_RCC_OscConfig+0x330>)
 8001332:	681b      	ldr	r3, [r3, #0]
 8001334:	2202      	movs	r2, #2
 8001336:	4013      	ands	r3, r2
 8001338:	d1f1      	bne.n	800131e <HAL_RCC_OscConfig+0x1fe>
 800133a:	687b      	ldr	r3, [r7, #4]
 800133c:	681b      	ldr	r3, [r3, #0]
 800133e:	2208      	movs	r2, #8
 8001340:	4013      	ands	r3, r2
 8001342:	d036      	beq.n	80013b2 <HAL_RCC_OscConfig+0x292>
 8001344:	687b      	ldr	r3, [r7, #4]
 8001346:	69db      	ldr	r3, [r3, #28]
 8001348:	2b00      	cmp	r3, #0
 800134a:	d019      	beq.n	8001380 <HAL_RCC_OscConfig+0x260>
 800134c:	4b40      	ldr	r3, [pc, #256]	; (8001450 <HAL_RCC_OscConfig+0x330>)
 800134e:	6a5a      	ldr	r2, [r3, #36]	; 0x24
 8001350:	4b3f      	ldr	r3, [pc, #252]	; (8001450 <HAL_RCC_OscConfig+0x330>)
 8001352:	2101      	movs	r1, #1
 8001354:	430a      	orrs	r2, r1
 8001356:	625a      	str	r2, [r3, #36]	; 0x24
 8001358:	f7ff fc58 	bl	8000c0c <HAL_GetTick>
 800135c:	0003      	movs	r3, r0
 800135e:	61bb      	str	r3, [r7, #24]
 8001360:	e008      	b.n	8001374 <HAL_RCC_OscConfig+0x254>
 8001362:	f7ff fc53 	bl	8000c0c <HAL_GetTick>
 8001366:	0002      	movs	r2, r0
 8001368:	69bb      	ldr	r3, [r7, #24]
 800136a:	1ad3      	subs	r3, r2, r3
 800136c:	2b02      	cmp	r3, #2
 800136e:	d901      	bls.n	8001374 <HAL_RCC_OscConfig+0x254>
 8001370:	2303      	movs	r3, #3
 8001372:	e1e2      	b.n	800173a <HAL_RCC_OscConfig+0x61a>
 8001374:	4b36      	ldr	r3, [pc, #216]	; (8001450 <HAL_RCC_OscConfig+0x330>)
 8001376:	6a5b      	ldr	r3, [r3, #36]	; 0x24
 8001378:	2202      	movs	r2, #2
 800137a:	4013      	ands	r3, r2
 800137c:	d0f1      	beq.n	8001362 <HAL_RCC_OscConfig+0x242>
 800137e:	e018      	b.n	80013b2 <HAL_RCC_OscConfig+0x292>
 8001380:	4b33      	ldr	r3, [pc, #204]	; (8001450 <HAL_RCC_OscConfig+0x330>)
 8001382:	6a5a      	ldr	r2, [r3, #36]	; 0x24
 8001384:	4b32      	ldr	r3, [pc, #200]	; (8001450 <HAL_RCC_OscConfig+0x330>)
 8001386:	2101      	movs	r1, #1
 8001388:	438a      	bics	r2, r1
 800138a:	625a      	str	r2, [r3, #36]	; 0x24
 800138c:	f7ff fc3e 	bl	8000c0c <HAL_GetTick>
 8001390:	0003      	movs	r3, r0
 8001392:	61bb      	str	r3, [r7, #24]
 8001394:	e008      	b.n	80013a8 <HAL_RCC_OscConfig+0x288>
 8001396:	f7ff fc39 	bl	8000c0c <HAL_GetTick>
 800139a:	0002      	movs	r2, r0
 800139c:	69bb      	ldr	r3, [r7, #24]
 800139e:	1ad3      	subs	r3, r2, r3
 80013a0:	2b02      	cmp	r3, #2
 80013a2:	d901      	bls.n	80013a8 <HAL_RCC_OscConfig+0x288>
 80013a4:	2303      	movs	r3, #3
 80013a6:	e1c8      	b.n	800173a <HAL_RCC_OscConfig+0x61a>
 80013a8:	4b29      	ldr	r3, [pc, #164]	; (8001450 <HAL_RCC_OscConfig+0x330>)
 80013aa:	6a5b      	ldr	r3, [r3, #36]	; 0x24
 80013ac:	2202      	movs	r2, #2
 80013ae:	4013      	ands	r3, r2
 80013b0:	d1f1      	bne.n	8001396 <HAL_RCC_OscConfig+0x276>
 80013b2:	687b      	ldr	r3, [r7, #4]
 80013b4:	681b      	ldr	r3, [r3, #0]
 80013b6:	2204      	movs	r2, #4
 80013b8:	4013      	ands	r3, r2
 80013ba:	d100      	bne.n	80013be <HAL_RCC_OscConfig+0x29e>
 80013bc:	e0b6      	b.n	800152c <HAL_RCC_OscConfig+0x40c>
 80013be:	231f      	movs	r3, #31
 80013c0:	18fb      	adds	r3, r7, r3
 80013c2:	2200      	movs	r2, #0
 80013c4:	701a      	strb	r2, [r3, #0]
 80013c6:	4b22      	ldr	r3, [pc, #136]	; (8001450 <HAL_RCC_OscConfig+0x330>)
 80013c8:	69da      	ldr	r2, [r3, #28]
 80013ca:	2380      	movs	r3, #128	; 0x80
 80013cc:	055b      	lsls	r3, r3, #21
 80013ce:	4013      	ands	r3, r2
 80013d0:	d111      	bne.n	80013f6 <HAL_RCC_OscConfig+0x2d6>
 80013d2:	4b1f      	ldr	r3, [pc, #124]	; (8001450 <HAL_RCC_OscConfig+0x330>)
 80013d4:	69da      	ldr	r2, [r3, #28]
 80013d6:	4b1e      	ldr	r3, [pc, #120]	; (8001450 <HAL_RCC_OscConfig+0x330>)
 80013d8:	2180      	movs	r1, #128	; 0x80
 80013da:	0549      	lsls	r1, r1, #21
 80013dc:	430a      	orrs	r2, r1
 80013de:	61da      	str	r2, [r3, #28]
 80013e0:	4b1b      	ldr	r3, [pc, #108]	; (8001450 <HAL_RCC_OscConfig+0x330>)
 80013e2:	69da      	ldr	r2, [r3, #28]
 80013e4:	2380      	movs	r3, #128	; 0x80
 80013e6:	055b      	lsls	r3, r3, #21
 80013e8:	4013      	ands	r3, r2
 80013ea:	60fb      	str	r3, [r7, #12]
 80013ec:	68fb      	ldr	r3, [r7, #12]
 80013ee:	231f      	movs	r3, #31
 80013f0:	18fb      	adds	r3, r7, r3
 80013f2:	2201      	movs	r2, #1
 80013f4:	701a      	strb	r2, [r3, #0]
 80013f6:	4b19      	ldr	r3, [pc, #100]	; (800145c <HAL_RCC_OscConfig+0x33c>)
 80013f8:	681a      	ldr	r2, [r3, #0]
 80013fa:	2380      	movs	r3, #128	; 0x80
 80013fc:	005b      	lsls	r3, r3, #1
 80013fe:	4013      	ands	r3, r2
 8001400:	d11a      	bne.n	8001438 <HAL_RCC_OscConfig+0x318>
 8001402:	4b16      	ldr	r3, [pc, #88]	; (800145c <HAL_RCC_OscConfig+0x33c>)
 8001404:	681a      	ldr	r2, [r3, #0]
 8001406:	4b15      	ldr	r3, [pc, #84]	; (800145c <HAL_RCC_OscConfig+0x33c>)
 8001408:	2180      	movs	r1, #128	; 0x80
 800140a:	0049      	lsls	r1, r1, #1
 800140c:	430a      	orrs	r2, r1
 800140e:	601a      	str	r2, [r3, #0]
 8001410:	f7ff fbfc 	bl	8000c0c <HAL_GetTick>
 8001414:	0003      	movs	r3, r0
 8001416:	61bb      	str	r3, [r7, #24]
 8001418:	e008      	b.n	800142c <HAL_RCC_OscConfig+0x30c>
 800141a:	f7ff fbf7 	bl	8000c0c <HAL_GetTick>
 800141e:	0002      	movs	r2, r0
 8001420:	69bb      	ldr	r3, [r7, #24]
 8001422:	1ad3      	subs	r3, r2, r3
 8001424:	2b64      	cmp	r3, #100	; 0x64
 8001426:	d901      	bls.n	800142c <HAL_RCC_OscConfig+0x30c>
 8001428:	2303      	movs	r3, #3
 800142a:	e186      	b.n	800173a <HAL_RCC_OscConfig+0x61a>
 800142c:	4b0b      	ldr	r3, [pc, #44]	; (800145c <HAL_RCC_OscConfig+0x33c>)
 800142e:	681a      	ldr	r2, [r3, #0]
 8001430:	2380      	movs	r3, #128	; 0x80
 8001432:	005b      	lsls	r3, r3, #1
 8001434:	4013      	ands	r3, r2
 8001436:	d0f0      	beq.n	800141a <HAL_RCC_OscConfig+0x2fa>
 8001438:	687b      	ldr	r3, [r7, #4]
 800143a:	689b      	ldr	r3, [r3, #8]
 800143c:	2b01      	cmp	r3, #1
 800143e:	d10f      	bne.n	8001460 <HAL_RCC_OscConfig+0x340>
 8001440:	4b03      	ldr	r3, [pc, #12]	; (8001450 <HAL_RCC_OscConfig+0x330>)
 8001442:	6a1a      	ldr	r2, [r3, #32]
 8001444:	4b02      	ldr	r3, [pc, #8]	; (8001450 <HAL_RCC_OscConfig+0x330>)
 8001446:	2101      	movs	r1, #1
 8001448:	430a      	orrs	r2, r1
 800144a:	621a      	str	r2, [r3, #32]
 800144c:	e036      	b.n	80014bc <HAL_RCC_OscConfig+0x39c>
 800144e:	46c0      	nop			; (mov r8, r8)
 8001450:	40021000 	.word	0x40021000
 8001454:	fffeffff 	.word	0xfffeffff
 8001458:	fffbffff 	.word	0xfffbffff
 800145c:	40007000 	.word	0x40007000
 8001460:	687b      	ldr	r3, [r7, #4]
 8001462:	689b      	ldr	r3, [r3, #8]
 8001464:	2b00      	cmp	r3, #0
 8001466:	d10c      	bne.n	8001482 <HAL_RCC_OscConfig+0x362>
 8001468:	4bb6      	ldr	r3, [pc, #728]	; (8001744 <HAL_RCC_OscConfig+0x624>)
 800146a:	6a1a      	ldr	r2, [r3, #32]
 800146c:	4bb5      	ldr	r3, [pc, #724]	; (8001744 <HAL_RCC_OscConfig+0x624>)
 800146e:	2101      	movs	r1, #1
 8001470:	438a      	bics	r2, r1
 8001472:	621a      	str	r2, [r3, #32]
 8001474:	4bb3      	ldr	r3, [pc, #716]	; (8001744 <HAL_RCC_OscConfig+0x624>)
 8001476:	6a1a      	ldr	r2, [r3, #32]
 8001478:	4bb2      	ldr	r3, [pc, #712]	; (8001744 <HAL_RCC_OscConfig+0x624>)
 800147a:	2104      	movs	r1, #4
 800147c:	438a      	bics	r2, r1
 800147e:	621a      	str	r2, [r3, #32]
 8001480:	e01c      	b.n	80014bc <HAL_RCC_OscConfig+0x39c>
 8001482:	687b      	ldr	r3, [r7, #4]
 8001484:	689b      	ldr	r3, [r3, #8]
 8001486:	2b05      	cmp	r3, #5
 8001488:	d10c      	bne.n	80014a4 <HAL_RCC_OscConfig+0x384>
 800148a:	4bae      	ldr	r3, [pc, #696]	; (8001744 <HAL_RCC_OscConfig+0x624>)
 800148c:	6a1a      	ldr	r2, [r3, #32]
 800148e:	4bad      	ldr	r3, [pc, #692]	; (8001744 <HAL_RCC_OscConfig+0x624>)
 8001490:	2104      	movs	r1, #4
 8001492:	430a      	orrs	r2, r1
 8001494:	621a      	str	r2, [r3, #32]
 8001496:	4bab      	ldr	r3, [pc, #684]	; (8001744 <HAL_RCC_OscConfig+0x624>)
 8001498:	6a1a      	ldr	r2, [r3, #32]
 800149a:	4baa      	ldr	r3, [pc, #680]	; (8001744 <HAL_RCC_OscConfig+0x624>)
 800149c:	2101      	movs	r1, #1
 800149e:	430a      	orrs	r2, r1
 80014a0:	621a      	str	r2, [r3, #32]
 80014a2:	e00b      	b.n	80014bc <HAL_RCC_OscConfig+0x39c>
 80014a4:	4ba7      	ldr	r3, [pc, #668]	; (8001744 <HAL_RCC_OscConfig+0x624>)
 80014a6:	6a1a      	ldr	r2, [r3, #32]
 80014a8:	4ba6      	ldr	r3, [pc, #664]	; (8001744 <HAL_RCC_OscConfig+0x624>)
 80014aa:	2101      	movs	r1, #1
 80014ac:	438a      	bics	r2, r1
 80014ae:	621a      	str	r2, [r3, #32]
 80014b0:	4ba4      	ldr	r3, [pc, #656]	; (8001744 <HAL_RCC_OscConfig+0x624>)
 80014b2:	6a1a      	ldr	r2, [r3, #32]
 80014b4:	4ba3      	ldr	r3, [pc, #652]	; (8001744 <HAL_RCC_OscConfig+0x624>)
 80014b6:	2104      	movs	r1, #4
 80014b8:	438a      	bics	r2, r1
 80014ba:	621a      	str	r2, [r3, #32]
 80014bc:	687b      	ldr	r3, [r7, #4]
 80014be:	689b      	ldr	r3, [r3, #8]
 80014c0:	2b00      	cmp	r3, #0
 80014c2:	d014      	beq.n	80014ee <HAL_RCC_OscConfig+0x3ce>
 80014c4:	f7ff fba2 	bl	8000c0c <HAL_GetTick>
 80014c8:	0003      	movs	r3, r0
 80014ca:	61bb      	str	r3, [r7, #24]
 80014cc:	e009      	b.n	80014e2 <HAL_RCC_OscConfig+0x3c2>
 80014ce:	f7ff fb9d 	bl	8000c0c <HAL_GetTick>
 80014d2:	0002      	movs	r2, r0
 80014d4:	69bb      	ldr	r3, [r7, #24]
 80014d6:	1ad3      	subs	r3, r2, r3
 80014d8:	4a9b      	ldr	r2, [pc, #620]	; (8001748 <HAL_RCC_OscConfig+0x628>)
 80014da:	4293      	cmp	r3, r2
 80014dc:	d901      	bls.n	80014e2 <HAL_RCC_OscConfig+0x3c2>
 80014de:	2303      	movs	r3, #3
 80014e0:	e12b      	b.n	800173a <HAL_RCC_OscConfig+0x61a>
 80014e2:	4b98      	ldr	r3, [pc, #608]	; (8001744 <HAL_RCC_OscConfig+0x624>)
 80014e4:	6a1b      	ldr	r3, [r3, #32]
 80014e6:	2202      	movs	r2, #2
 80014e8:	4013      	ands	r3, r2
 80014ea:	d0f0      	beq.n	80014ce <HAL_RCC_OscConfig+0x3ae>
 80014ec:	e013      	b.n	8001516 <HAL_RCC_OscConfig+0x3f6>
 80014ee:	f7ff fb8d 	bl	8000c0c <HAL_GetTick>
 80014f2:	0003      	movs	r3, r0
 80014f4:	61bb      	str	r3, [r7, #24]
 80014f6:	e009      	b.n	800150c <HAL_RCC_OscConfig+0x3ec>
 80014f8:	f7ff fb88 	bl	8000c0c <HAL_GetTick>
 80014fc:	0002      	movs	r2, r0
 80014fe:	69bb      	ldr	r3, [r7, #24]
 8001500:	1ad3      	subs	r3, r2, r3
 8001502:	4a91      	ldr	r2, [pc, #580]	; (8001748 <HAL_RCC_OscConfig+0x628>)
 8001504:	4293      	cmp	r3, r2
 8001506:	d901      	bls.n	800150c <HAL_RCC_OscConfig+0x3ec>
 8001508:	2303      	movs	r3, #3
 800150a:	e116      	b.n	800173a <HAL_RCC_OscConfig+0x61a>
 800150c:	4b8d      	ldr	r3, [pc, #564]	; (8001744 <HAL_RCC_OscConfig+0x624>)
 800150e:	6a1b      	ldr	r3, [r3, #32]
 8001510:	2202      	movs	r2, #2
 8001512:	4013      	ands	r3, r2
 8001514:	d1f0      	bne.n	80014f8 <HAL_RCC_OscConfig+0x3d8>
 8001516:	231f      	movs	r3, #31
 8001518:	18fb      	adds	r3, r7, r3
 800151a:	781b      	ldrb	r3, [r3, #0]
 800151c:	2b01      	cmp	r3, #1
 800151e:	d105      	bne.n	800152c <HAL_RCC_OscConfig+0x40c>
 8001520:	4b88      	ldr	r3, [pc, #544]	; (8001744 <HAL_RCC_OscConfig+0x624>)
 8001522:	69da      	ldr	r2, [r3, #28]
 8001524:	4b87      	ldr	r3, [pc, #540]	; (8001744 <HAL_RCC_OscConfig+0x624>)
 8001526:	4989      	ldr	r1, [pc, #548]	; (800174c <HAL_RCC_OscConfig+0x62c>)
 8001528:	400a      	ands	r2, r1
 800152a:	61da      	str	r2, [r3, #28]
 800152c:	687b      	ldr	r3, [r7, #4]
 800152e:	681b      	ldr	r3, [r3, #0]
 8001530:	2210      	movs	r2, #16
 8001532:	4013      	ands	r3, r2
 8001534:	d063      	beq.n	80015fe <HAL_RCC_OscConfig+0x4de>
 8001536:	687b      	ldr	r3, [r7, #4]
 8001538:	695b      	ldr	r3, [r3, #20]
 800153a:	2b01      	cmp	r3, #1
 800153c:	d12a      	bne.n	8001594 <HAL_RCC_OscConfig+0x474>
 800153e:	4b81      	ldr	r3, [pc, #516]	; (8001744 <HAL_RCC_OscConfig+0x624>)
 8001540:	6b5a      	ldr	r2, [r3, #52]	; 0x34
 8001542:	4b80      	ldr	r3, [pc, #512]	; (8001744 <HAL_RCC_OscConfig+0x624>)
 8001544:	2104      	movs	r1, #4
 8001546:	430a      	orrs	r2, r1
 8001548:	635a      	str	r2, [r3, #52]	; 0x34
 800154a:	4b7e      	ldr	r3, [pc, #504]	; (8001744 <HAL_RCC_OscConfig+0x624>)
 800154c:	6b5a      	ldr	r2, [r3, #52]	; 0x34
 800154e:	4b7d      	ldr	r3, [pc, #500]	; (8001744 <HAL_RCC_OscConfig+0x624>)
 8001550:	2101      	movs	r1, #1
 8001552:	430a      	orrs	r2, r1
 8001554:	635a      	str	r2, [r3, #52]	; 0x34
 8001556:	f7ff fb59 	bl	8000c0c <HAL_GetTick>
 800155a:	0003      	movs	r3, r0
 800155c:	61bb      	str	r3, [r7, #24]
 800155e:	e008      	b.n	8001572 <HAL_RCC_OscConfig+0x452>
 8001560:	f7ff fb54 	bl	8000c0c <HAL_GetTick>
 8001564:	0002      	movs	r2, r0
 8001566:	69bb      	ldr	r3, [r7, #24]
 8001568:	1ad3      	subs	r3, r2, r3
 800156a:	2b02      	cmp	r3, #2
 800156c:	d901      	bls.n	8001572 <HAL_RCC_OscConfig+0x452>
 800156e:	2303      	movs	r3, #3
 8001570:	e0e3      	b.n	800173a <HAL_RCC_OscConfig+0x61a>
 8001572:	4b74      	ldr	r3, [pc, #464]	; (8001744 <HAL_RCC_OscConfig+0x624>)
 8001574:	6b5b      	ldr	r3, [r3, #52]	; 0x34
 8001576:	2202      	movs	r2, #2
 8001578:	4013      	ands	r3, r2
 800157a:	d0f1      	beq.n	8001560 <HAL_RCC_OscConfig+0x440>
 800157c:	4b71      	ldr	r3, [pc, #452]	; (8001744 <HAL_RCC_OscConfig+0x624>)
 800157e:	6b5b      	ldr	r3, [r3, #52]	; 0x34
 8001580:	22f8      	movs	r2, #248	; 0xf8
 8001582:	4393      	bics	r3, r2
 8001584:	0019      	movs	r1, r3
 8001586:	687b      	ldr	r3, [r7, #4]
 8001588:	699b      	ldr	r3, [r3, #24]
 800158a:	00da      	lsls	r2, r3, #3
 800158c:	4b6d      	ldr	r3, [pc, #436]	; (8001744 <HAL_RCC_OscConfig+0x624>)
 800158e:	430a      	orrs	r2, r1
 8001590:	635a      	str	r2, [r3, #52]	; 0x34
 8001592:	e034      	b.n	80015fe <HAL_RCC_OscConfig+0x4de>
 8001594:	687b      	ldr	r3, [r7, #4]
 8001596:	695b      	ldr	r3, [r3, #20]
 8001598:	3305      	adds	r3, #5
 800159a:	d111      	bne.n	80015c0 <HAL_RCC_OscConfig+0x4a0>
 800159c:	4b69      	ldr	r3, [pc, #420]	; (8001744 <HAL_RCC_OscConfig+0x624>)
 800159e:	6b5a      	ldr	r2, [r3, #52]	; 0x34
 80015a0:	4b68      	ldr	r3, [pc, #416]	; (8001744 <HAL_RCC_OscConfig+0x624>)
 80015a2:	2104      	movs	r1, #4
 80015a4:	438a      	bics	r2, r1
 80015a6:	635a      	str	r2, [r3, #52]	; 0x34
 80015a8:	4b66      	ldr	r3, [pc, #408]	; (8001744 <HAL_RCC_OscConfig+0x624>)
 80015aa:	6b5b      	ldr	r3, [r3, #52]	; 0x34
 80015ac:	22f8      	movs	r2, #248	; 0xf8
 80015ae:	4393      	bics	r3, r2
 80015b0:	0019      	movs	r1, r3
 80015b2:	687b      	ldr	r3, [r7, #4]
 80015b4:	699b      	ldr	r3, [r3, #24]
 80015b6:	00da      	lsls	r2, r3, #3
 80015b8:	4b62      	ldr	r3, [pc, #392]	; (8001744 <HAL_RCC_OscConfig+0x624>)
 80015ba:	430a      	orrs	r2, r1
 80015bc:	635a      	str	r2, [r3, #52]	; 0x34
 80015be:	e01e      	b.n	80015fe <HAL_RCC_OscConfig+0x4de>
 80015c0:	4b60      	ldr	r3, [pc, #384]	; (8001744 <HAL_RCC_OscConfig+0x624>)
 80015c2:	6b5a      	ldr	r2, [r3, #52]	; 0x34
 80015c4:	4b5f      	ldr	r3, [pc, #380]	; (8001744 <HAL_RCC_OscConfig+0x624>)
 80015c6:	2104      	movs	r1, #4
 80015c8:	430a      	orrs	r2, r1
 80015ca:	635a      	str	r2, [r3, #52]	; 0x34
 80015cc:	4b5d      	ldr	r3, [pc, #372]	; (8001744 <HAL_RCC_OscConfig+0x624>)
 80015ce:	6b5a      	ldr	r2, [r3, #52]	; 0x34
 80015d0:	4b5c      	ldr	r3, [pc, #368]	; (8001744 <HAL_RCC_OscConfig+0x624>)
 80015d2:	2101      	movs	r1, #1
 80015d4:	438a      	bics	r2, r1
 80015d6:	635a      	str	r2, [r3, #52]	; 0x34
 80015d8:	f7ff fb18 	bl	8000c0c <HAL_GetTick>
 80015dc:	0003      	movs	r3, r0
 80015de:	61bb      	str	r3, [r7, #24]
 80015e0:	e008      	b.n	80015f4 <HAL_RCC_OscConfig+0x4d4>
 80015e2:	f7ff fb13 	bl	8000c0c <HAL_GetTick>
 80015e6:	0002      	movs	r2, r0
 80015e8:	69bb      	ldr	r3, [r7, #24]
 80015ea:	1ad3      	subs	r3, r2, r3
 80015ec:	2b02      	cmp	r3, #2
 80015ee:	d901      	bls.n	80015f4 <HAL_RCC_OscConfig+0x4d4>
 80015f0:	2303      	movs	r3, #3
 80015f2:	e0a2      	b.n	800173a <HAL_RCC_OscConfig+0x61a>
 80015f4:	4b53      	ldr	r3, [pc, #332]	; (8001744 <HAL_RCC_OscConfig+0x624>)
 80015f6:	6b5b      	ldr	r3, [r3, #52]	; 0x34
 80015f8:	2202      	movs	r2, #2
 80015fa:	4013      	ands	r3, r2
 80015fc:	d1f1      	bne.n	80015e2 <HAL_RCC_OscConfig+0x4c2>
 80015fe:	687b      	ldr	r3, [r7, #4]
 8001600:	6a1b      	ldr	r3, [r3, #32]
 8001602:	2b00      	cmp	r3, #0
 8001604:	d100      	bne.n	8001608 <HAL_RCC_OscConfig+0x4e8>
 8001606:	e097      	b.n	8001738 <HAL_RCC_OscConfig+0x618>
 8001608:	4b4e      	ldr	r3, [pc, #312]	; (8001744 <HAL_RCC_OscConfig+0x624>)
 800160a:	685b      	ldr	r3, [r3, #4]
 800160c:	220c      	movs	r2, #12
 800160e:	4013      	ands	r3, r2
 8001610:	2b08      	cmp	r3, #8
 8001612:	d100      	bne.n	8001616 <HAL_RCC_OscConfig+0x4f6>
 8001614:	e06b      	b.n	80016ee <HAL_RCC_OscConfig+0x5ce>
 8001616:	687b      	ldr	r3, [r7, #4]
 8001618:	6a1b      	ldr	r3, [r3, #32]
 800161a:	2b02      	cmp	r3, #2
 800161c:	d14c      	bne.n	80016b8 <HAL_RCC_OscConfig+0x598>
 800161e:	4b49      	ldr	r3, [pc, #292]	; (8001744 <HAL_RCC_OscConfig+0x624>)
 8001620:	681a      	ldr	r2, [r3, #0]
 8001622:	4b48      	ldr	r3, [pc, #288]	; (8001744 <HAL_RCC_OscConfig+0x624>)
 8001624:	494a      	ldr	r1, [pc, #296]	; (8001750 <HAL_RCC_OscConfig+0x630>)
 8001626:	400a      	ands	r2, r1
 8001628:	601a      	str	r2, [r3, #0]
 800162a:	f7ff faef 	bl	8000c0c <HAL_GetTick>
 800162e:	0003      	movs	r3, r0
 8001630:	61bb      	str	r3, [r7, #24]
 8001632:	e008      	b.n	8001646 <HAL_RCC_OscConfig+0x526>
 8001634:	f7ff faea 	bl	8000c0c <HAL_GetTick>
 8001638:	0002      	movs	r2, r0
 800163a:	69bb      	ldr	r3, [r7, #24]
 800163c:	1ad3      	subs	r3, r2, r3
 800163e:	2b02      	cmp	r3, #2
 8001640:	d901      	bls.n	8001646 <HAL_RCC_OscConfig+0x526>
 8001642:	2303      	movs	r3, #3
 8001644:	e079      	b.n	800173a <HAL_RCC_OscConfig+0x61a>
 8001646:	4b3f      	ldr	r3, [pc, #252]	; (8001744 <HAL_RCC_OscConfig+0x624>)
 8001648:	681a      	ldr	r2, [r3, #0]
 800164a:	2380      	movs	r3, #128	; 0x80
 800164c:	049b      	lsls	r3, r3, #18
 800164e:	4013      	ands	r3, r2
 8001650:	d1f0      	bne.n	8001634 <HAL_RCC_OscConfig+0x514>
 8001652:	4b3c      	ldr	r3, [pc, #240]	; (8001744 <HAL_RCC_OscConfig+0x624>)
 8001654:	6adb      	ldr	r3, [r3, #44]	; 0x2c
 8001656:	220f      	movs	r2, #15
 8001658:	4393      	bics	r3, r2
 800165a:	0019      	movs	r1, r3
 800165c:	687b      	ldr	r3, [r7, #4]
 800165e:	6ada      	ldr	r2, [r3, #44]	; 0x2c
 8001660:	4b38      	ldr	r3, [pc, #224]	; (8001744 <HAL_RCC_OscConfig+0x624>)
 8001662:	430a      	orrs	r2, r1
 8001664:	62da      	str	r2, [r3, #44]	; 0x2c
 8001666:	4b37      	ldr	r3, [pc, #220]	; (8001744 <HAL_RCC_OscConfig+0x624>)
 8001668:	685b      	ldr	r3, [r3, #4]
 800166a:	4a3a      	ldr	r2, [pc, #232]	; (8001754 <HAL_RCC_OscConfig+0x634>)
 800166c:	4013      	ands	r3, r2
 800166e:	0019      	movs	r1, r3
 8001670:	687b      	ldr	r3, [r7, #4]
 8001672:	6a9a      	ldr	r2, [r3, #40]	; 0x28
 8001674:	687b      	ldr	r3, [r7, #4]
 8001676:	6a5b      	ldr	r3, [r3, #36]	; 0x24
 8001678:	431a      	orrs	r2, r3
 800167a:	4b32      	ldr	r3, [pc, #200]	; (8001744 <HAL_RCC_OscConfig+0x624>)
 800167c:	430a      	orrs	r2, r1
 800167e:	605a      	str	r2, [r3, #4]
 8001680:	4b30      	ldr	r3, [pc, #192]	; (8001744 <HAL_RCC_OscConfig+0x624>)
 8001682:	681a      	ldr	r2, [r3, #0]
 8001684:	4b2f      	ldr	r3, [pc, #188]	; (8001744 <HAL_RCC_OscConfig+0x624>)
 8001686:	2180      	movs	r1, #128	; 0x80
 8001688:	0449      	lsls	r1, r1, #17
 800168a:	430a      	orrs	r2, r1
 800168c:	601a      	str	r2, [r3, #0]
 800168e:	f7ff fabd 	bl	8000c0c <HAL_GetTick>
 8001692:	0003      	movs	r3, r0
 8001694:	61bb      	str	r3, [r7, #24]
 8001696:	e008      	b.n	80016aa <HAL_RCC_OscConfig+0x58a>
 8001698:	f7ff fab8 	bl	8000c0c <HAL_GetTick>
 800169c:	0002      	movs	r2, r0
 800169e:	69bb      	ldr	r3, [r7, #24]
 80016a0:	1ad3      	subs	r3, r2, r3
 80016a2:	2b02      	cmp	r3, #2
 80016a4:	d901      	bls.n	80016aa <HAL_RCC_OscConfig+0x58a>
 80016a6:	2303      	movs	r3, #3
 80016a8:	e047      	b.n	800173a <HAL_RCC_OscConfig+0x61a>
 80016aa:	4b26      	ldr	r3, [pc, #152]	; (8001744 <HAL_RCC_OscConfig+0x624>)
 80016ac:	681a      	ldr	r2, [r3, #0]
 80016ae:	2380      	movs	r3, #128	; 0x80
 80016b0:	049b      	lsls	r3, r3, #18
 80016b2:	4013      	ands	r3, r2
 80016b4:	d0f0      	beq.n	8001698 <HAL_RCC_OscConfig+0x578>
 80016b6:	e03f      	b.n	8001738 <HAL_RCC_OscConfig+0x618>
 80016b8:	4b22      	ldr	r3, [pc, #136]	; (8001744 <HAL_RCC_OscConfig+0x624>)
 80016ba:	681a      	ldr	r2, [r3, #0]
 80016bc:	4b21      	ldr	r3, [pc, #132]	; (8001744 <HAL_RCC_OscConfig+0x624>)
 80016be:	4924      	ldr	r1, [pc, #144]	; (8001750 <HAL_RCC_OscConfig+0x630>)
 80016c0:	400a      	ands	r2, r1
 80016c2:	601a      	str	r2, [r3, #0]
 80016c4:	f7ff faa2 	bl	8000c0c <HAL_GetTick>
 80016c8:	0003      	movs	r3, r0
 80016ca:	61bb      	str	r3, [r7, #24]
 80016cc:	e008      	b.n	80016e0 <HAL_RCC_OscConfig+0x5c0>
 80016ce:	f7ff fa9d 	bl	8000c0c <HAL_GetTick>
 80016d2:	0002      	movs	r2, r0
 80016d4:	69bb      	ldr	r3, [r7, #24]
 80016d6:	1ad3      	subs	r3, r2, r3
 80016d8:	2b02      	cmp	r3, #2
 80016da:	d901      	bls.n	80016e0 <HAL_RCC_OscConfig+0x5c0>
 80016dc:	2303      	movs	r3, #3
 80016de:	e02c      	b.n	800173a <HAL_RCC_OscConfig+0x61a>
 80016e0:	4b18      	ldr	r3, [pc, #96]	; (8001744 <HAL_RCC_OscConfig+0x624>)
 80016e2:	681a      	ldr	r2, [r3, #0]
 80016e4:	2380      	movs	r3, #128	; 0x80
 80016e6:	049b      	lsls	r3, r3, #18
 80016e8:	4013      	ands	r3, r2
 80016ea:	d1f0      	bne.n	80016ce <HAL_RCC_OscConfig+0x5ae>
 80016ec:	e024      	b.n	8001738 <HAL_RCC_OscConfig+0x618>
 80016ee:	687b      	ldr	r3, [r7, #4]
 80016f0:	6a1b      	ldr	r3, [r3, #32]
 80016f2:	2b01      	cmp	r3, #1
 80016f4:	d101      	bne.n	80016fa <HAL_RCC_OscConfig+0x5da>
 80016f6:	2301      	movs	r3, #1
 80016f8:	e01f      	b.n	800173a <HAL_RCC_OscConfig+0x61a>
 80016fa:	4b12      	ldr	r3, [pc, #72]	; (8001744 <HAL_RCC_OscConfig+0x624>)
 80016fc:	685b      	ldr	r3, [r3, #4]
 80016fe:	617b      	str	r3, [r7, #20]
 8001700:	4b10      	ldr	r3, [pc, #64]	; (8001744 <HAL_RCC_OscConfig+0x624>)
 8001702:	6adb      	ldr	r3, [r3, #44]	; 0x2c
 8001704:	613b      	str	r3, [r7, #16]
 8001706:	697a      	ldr	r2, [r7, #20]
 8001708:	2380      	movs	r3, #128	; 0x80
 800170a:	025b      	lsls	r3, r3, #9
 800170c:	401a      	ands	r2, r3
 800170e:	687b      	ldr	r3, [r7, #4]
 8001710:	6a5b      	ldr	r3, [r3, #36]	; 0x24
 8001712:	429a      	cmp	r2, r3
 8001714:	d10e      	bne.n	8001734 <HAL_RCC_OscConfig+0x614>
 8001716:	693b      	ldr	r3, [r7, #16]
 8001718:	220f      	movs	r2, #15
 800171a:	401a      	ands	r2, r3
 800171c:	687b      	ldr	r3, [r7, #4]
 800171e:	6adb      	ldr	r3, [r3, #44]	; 0x2c
 8001720:	429a      	cmp	r2, r3
 8001722:	d107      	bne.n	8001734 <HAL_RCC_OscConfig+0x614>
 8001724:	697a      	ldr	r2, [r7, #20]
 8001726:	23f0      	movs	r3, #240	; 0xf0
 8001728:	039b      	lsls	r3, r3, #14
 800172a:	401a      	ands	r2, r3
 800172c:	687b      	ldr	r3, [r7, #4]
 800172e:	6a9b      	ldr	r3, [r3, #40]	; 0x28
 8001730:	429a      	cmp	r2, r3
 8001732:	d001      	beq.n	8001738 <HAL_RCC_OscConfig+0x618>
 8001734:	2301      	movs	r3, #1
 8001736:	e000      	b.n	800173a <HAL_RCC_OscConfig+0x61a>
 8001738:	2300      	movs	r3, #0
 800173a:	0018      	movs	r0, r3
 800173c:	46bd      	mov	sp, r7
 800173e:	b008      	add	sp, #32
 8001740:	bd80      	pop	{r7, pc}
 8001742:	46c0      	nop			; (mov r8, r8)
 8001744:	40021000 	.word	0x40021000
 8001748:	00001388 	.word	0x00001388
 800174c:	efffffff 	.word	0xefffffff
 8001750:	feffffff 	.word	0xfeffffff
 8001754:	ffc2ffff 	.word	0xffc2ffff

08001758 <HAL_RCC_ClockConfig>:
 8001758:	b580      	push	{r7, lr}
 800175a:	b084      	sub	sp, #16
 800175c:	af00      	add	r7, sp, #0
 800175e:	6078      	str	r0, [r7, #4]
 8001760:	6039      	str	r1, [r7, #0]
 8001762:	687b      	ldr	r3, [r7, #4]
 8001764:	2b00      	cmp	r3, #0
 8001766:	d101      	bne.n	800176c <HAL_RCC_ClockConfig+0x14>
 8001768:	2301      	movs	r3, #1
 800176a:	e0b3      	b.n	80018d4 <HAL_RCC_ClockConfig+0x17c>
 800176c:	4b5b      	ldr	r3, [pc, #364]	; (80018dc <HAL_RCC_ClockConfig+0x184>)
 800176e:	681b      	ldr	r3, [r3, #0]
 8001770:	2201      	movs	r2, #1
 8001772:	4013      	ands	r3, r2
 8001774:	683a      	ldr	r2, [r7, #0]
 8001776:	429a      	cmp	r2, r3
 8001778:	d911      	bls.n	800179e <HAL_RCC_ClockConfig+0x46>
 800177a:	4b58      	ldr	r3, [pc, #352]	; (80018dc <HAL_RCC_ClockConfig+0x184>)
 800177c:	681b      	ldr	r3, [r3, #0]
 800177e:	2201      	movs	r2, #1
 8001780:	4393      	bics	r3, r2
 8001782:	0019      	movs	r1, r3
 8001784:	4b55      	ldr	r3, [pc, #340]	; (80018dc <HAL_RCC_ClockConfig+0x184>)
 8001786:	683a      	ldr	r2, [r7, #0]
 8001788:	430a      	orrs	r2, r1
 800178a:	601a      	str	r2, [r3, #0]
 800178c:	4b53      	ldr	r3, [pc, #332]	; (80018dc <HAL_RCC_ClockConfig+0x184>)
 800178e:	681b      	ldr	r3, [r3, #0]
 8001790:	2201      	movs	r2, #1
 8001792:	4013      	ands	r3, r2
 8001794:	683a      	ldr	r2, [r7, #0]
 8001796:	429a      	cmp	r2, r3
 8001798:	d001      	beq.n	800179e <HAL_RCC_ClockConfig+0x46>
 800179a:	2301      	movs	r3, #1
 800179c:	e09a      	b.n	80018d4 <HAL_RCC_ClockConfig+0x17c>
 800179e:	687b      	ldr	r3, [r7, #4]
 80017a0:	681b      	ldr	r3, [r3, #0]
 80017a2:	2202      	movs	r2, #2
 80017a4:	4013      	ands	r3, r2
 80017a6:	d015      	beq.n	80017d4 <HAL_RCC_ClockConfig+0x7c>
 80017a8:	687b      	ldr	r3, [r7, #4]
 80017aa:	681b      	ldr	r3, [r3, #0]
 80017ac:	2204      	movs	r2, #4
 80017ae:	4013      	ands	r3, r2
 80017b0:	d006      	beq.n	80017c0 <HAL_RCC_ClockConfig+0x68>
 80017b2:	4b4b      	ldr	r3, [pc, #300]	; (80018e0 <HAL_RCC_ClockConfig+0x188>)
 80017b4:	685a      	ldr	r2, [r3, #4]
 80017b6:	4b4a      	ldr	r3, [pc, #296]	; (80018e0 <HAL_RCC_ClockConfig+0x188>)
 80017b8:	21e0      	movs	r1, #224	; 0xe0
 80017ba:	00c9      	lsls	r1, r1, #3
 80017bc:	430a      	orrs	r2, r1
 80017be:	605a      	str	r2, [r3, #4]
 80017c0:	4b47      	ldr	r3, [pc, #284]	; (80018e0 <HAL_RCC_ClockConfig+0x188>)
 80017c2:	685b      	ldr	r3, [r3, #4]
 80017c4:	22f0      	movs	r2, #240	; 0xf0
 80017c6:	4393      	bics	r3, r2
 80017c8:	0019      	movs	r1, r3
 80017ca:	687b      	ldr	r3, [r7, #4]
 80017cc:	689a      	ldr	r2, [r3, #8]
 80017ce:	4b44      	ldr	r3, [pc, #272]	; (80018e0 <HAL_RCC_ClockConfig+0x188>)
 80017d0:	430a      	orrs	r2, r1
 80017d2:	605a      	str	r2, [r3, #4]
 80017d4:	687b      	ldr	r3, [r7, #4]
 80017d6:	681b      	ldr	r3, [r3, #0]
 80017d8:	2201      	movs	r2, #1
 80017da:	4013      	ands	r3, r2
 80017dc:	d040      	beq.n	8001860 <HAL_RCC_ClockConfig+0x108>
 80017de:	687b      	ldr	r3, [r7, #4]
 80017e0:	685b      	ldr	r3, [r3, #4]
 80017e2:	2b01      	cmp	r3, #1
 80017e4:	d107      	bne.n	80017f6 <HAL_RCC_ClockConfig+0x9e>
 80017e6:	4b3e      	ldr	r3, [pc, #248]	; (80018e0 <HAL_RCC_ClockConfig+0x188>)
 80017e8:	681a      	ldr	r2, [r3, #0]
 80017ea:	2380      	movs	r3, #128	; 0x80
 80017ec:	029b      	lsls	r3, r3, #10
 80017ee:	4013      	ands	r3, r2
 80017f0:	d114      	bne.n	800181c <HAL_RCC_ClockConfig+0xc4>
 80017f2:	2301      	movs	r3, #1
 80017f4:	e06e      	b.n	80018d4 <HAL_RCC_ClockConfig+0x17c>
 80017f6:	687b      	ldr	r3, [r7, #4]
 80017f8:	685b      	ldr	r3, [r3, #4]
 80017fa:	2b02      	cmp	r3, #2
 80017fc:	d107      	bne.n	800180e <HAL_RCC_ClockConfig+0xb6>
 80017fe:	4b38      	ldr	r3, [pc, #224]	; (80018e0 <HAL_RCC_ClockConfig+0x188>)
 8001800:	681a      	ldr	r2, [r3, #0]
 8001802:	2380      	movs	r3, #128	; 0x80
 8001804:	049b      	lsls	r3, r3, #18
 8001806:	4013      	ands	r3, r2
 8001808:	d108      	bne.n	800181c <HAL_RCC_ClockConfig+0xc4>
 800180a:	2301      	movs	r3, #1
 800180c:	e062      	b.n	80018d4 <HAL_RCC_ClockConfig+0x17c>
 800180e:	4b34      	ldr	r3, [pc, #208]	; (80018e0 <HAL_RCC_ClockConfig+0x188>)
 8001810:	681b      	ldr	r3, [r3, #0]
 8001812:	2202      	movs	r2, #2
 8001814:	4013      	ands	r3, r2
 8001816:	d101      	bne.n	800181c <HAL_RCC_ClockConfig+0xc4>
 8001818:	2301      	movs	r3, #1
 800181a:	e05b      	b.n	80018d4 <HAL_RCC_ClockConfig+0x17c>
 800181c:	4b30      	ldr	r3, [pc, #192]	; (80018e0 <HAL_RCC_ClockConfig+0x188>)
 800181e:	685b      	ldr	r3, [r3, #4]
 8001820:	2203      	movs	r2, #3
 8001822:	4393      	bics	r3, r2
 8001824:	0019      	movs	r1, r3
 8001826:	687b      	ldr	r3, [r7, #4]
 8001828:	685a      	ldr	r2, [r3, #4]
 800182a:	4b2d      	ldr	r3, [pc, #180]	; (80018e0 <HAL_RCC_ClockConfig+0x188>)
 800182c:	430a      	orrs	r2, r1
 800182e:	605a      	str	r2, [r3, #4]
 8001830:	f7ff f9ec 	bl	8000c0c <HAL_GetTick>
 8001834:	0003      	movs	r3, r0
 8001836:	60fb      	str	r3, [r7, #12]
 8001838:	e009      	b.n	800184e <HAL_RCC_ClockConfig+0xf6>
 800183a:	f7ff f9e7 	bl	8000c0c <HAL_GetTick>
 800183e:	0002      	movs	r2, r0
 8001840:	68fb      	ldr	r3, [r7, #12]
 8001842:	1ad3      	subs	r3, r2, r3
 8001844:	4a27      	ldr	r2, [pc, #156]	; (80018e4 <HAL_RCC_ClockConfig+0x18c>)
 8001846:	4293      	cmp	r3, r2
 8001848:	d901      	bls.n	800184e <HAL_RCC_ClockConfig+0xf6>
 800184a:	2303      	movs	r3, #3
 800184c:	e042      	b.n	80018d4 <HAL_RCC_ClockConfig+0x17c>
 800184e:	4b24      	ldr	r3, [pc, #144]	; (80018e0 <HAL_RCC_ClockConfig+0x188>)
 8001850:	685b      	ldr	r3, [r3, #4]
 8001852:	220c      	movs	r2, #12
 8001854:	401a      	ands	r2, r3
 8001856:	687b      	ldr	r3, [r7, #4]
 8001858:	685b      	ldr	r3, [r3, #4]
 800185a:	009b      	lsls	r3, r3, #2
 800185c:	429a      	cmp	r2, r3
 800185e:	d1ec      	bne.n	800183a <HAL_RCC_ClockConfig+0xe2>
 8001860:	4b1e      	ldr	r3, [pc, #120]	; (80018dc <HAL_RCC_ClockConfig+0x184>)
 8001862:	681b      	ldr	r3, [r3, #0]
 8001864:	2201      	movs	r2, #1
 8001866:	4013      	ands	r3, r2
 8001868:	683a      	ldr	r2, [r7, #0]
 800186a:	429a      	cmp	r2, r3
 800186c:	d211      	bcs.n	8001892 <HAL_RCC_ClockConfig+0x13a>
 800186e:	4b1b      	ldr	r3, [pc, #108]	; (80018dc <HAL_RCC_ClockConfig+0x184>)
 8001870:	681b      	ldr	r3, [r3, #0]
 8001872:	2201      	movs	r2, #1
 8001874:	4393      	bics	r3, r2
 8001876:	0019      	movs	r1, r3
 8001878:	4b18      	ldr	r3, [pc, #96]	; (80018dc <HAL_RCC_ClockConfig+0x184>)
 800187a:	683a      	ldr	r2, [r7, #0]
 800187c:	430a      	orrs	r2, r1
 800187e:	601a      	str	r2, [r3, #0]
 8001880:	4b16      	ldr	r3, [pc, #88]	; (80018dc <HAL_RCC_ClockConfig+0x184>)
 8001882:	681b      	ldr	r3, [r3, #0]
 8001884:	2201      	movs	r2, #1
 8001886:	4013      	ands	r3, r2
 8001888:	683a      	ldr	r2, [r7, #0]
 800188a:	429a      	cmp	r2, r3
 800188c:	d001      	beq.n	8001892 <HAL_RCC_ClockConfig+0x13a>
 800188e:	2301      	movs	r3, #1
 8001890:	e020      	b.n	80018d4 <HAL_RCC_ClockConfig+0x17c>
 8001892:	687b      	ldr	r3, [r7, #4]
 8001894:	681b      	ldr	r3, [r3, #0]
 8001896:	2204      	movs	r2, #4
 8001898:	4013      	ands	r3, r2
 800189a:	d009      	beq.n	80018b0 <HAL_RCC_ClockConfig+0x158>
 800189c:	4b10      	ldr	r3, [pc, #64]	; (80018e0 <HAL_RCC_ClockConfig+0x188>)
 800189e:	685b      	ldr	r3, [r3, #4]
 80018a0:	4a11      	ldr	r2, [pc, #68]	; (80018e8 <HAL_RCC_ClockConfig+0x190>)
 80018a2:	4013      	ands	r3, r2
 80018a4:	0019      	movs	r1, r3
 80018a6:	687b      	ldr	r3, [r7, #4]
 80018a8:	68da      	ldr	r2, [r3, #12]
 80018aa:	4b0d      	ldr	r3, [pc, #52]	; (80018e0 <HAL_RCC_ClockConfig+0x188>)
 80018ac:	430a      	orrs	r2, r1
 80018ae:	605a      	str	r2, [r3, #4]
 80018b0:	f000 f820 	bl	80018f4 <HAL_RCC_GetSysClockFreq>
 80018b4:	0001      	movs	r1, r0
 80018b6:	4b0a      	ldr	r3, [pc, #40]	; (80018e0 <HAL_RCC_ClockConfig+0x188>)
 80018b8:	685b      	ldr	r3, [r3, #4]
 80018ba:	091b      	lsrs	r3, r3, #4
 80018bc:	220f      	movs	r2, #15
 80018be:	4013      	ands	r3, r2
 80018c0:	4a0a      	ldr	r2, [pc, #40]	; (80018ec <HAL_RCC_ClockConfig+0x194>)
 80018c2:	5cd3      	ldrb	r3, [r2, r3]
 80018c4:	000a      	movs	r2, r1
 80018c6:	40da      	lsrs	r2, r3
 80018c8:	4b09      	ldr	r3, [pc, #36]	; (80018f0 <HAL_RCC_ClockConfig+0x198>)
 80018ca:	601a      	str	r2, [r3, #0]
 80018cc:	2000      	movs	r0, #0
 80018ce:	f7ff f957 	bl	8000b80 <HAL_InitTick>
 80018d2:	2300      	movs	r3, #0
 80018d4:	0018      	movs	r0, r3
 80018d6:	46bd      	mov	sp, r7
 80018d8:	b004      	add	sp, #16
 80018da:	bd80      	pop	{r7, pc}
 80018dc:	40022000 	.word	0x40022000
 80018e0:	40021000 	.word	0x40021000
 80018e4:	00001388 	.word	0x00001388
 80018e8:	fffff8ff 	.word	0xfffff8ff
 80018ec:	08001d4c 	.word	0x08001d4c
 80018f0:	20000000 	.word	0x20000000

080018f4 <HAL_RCC_GetSysClockFreq>:
 80018f4:	b590      	push	{r4, r7, lr}
 80018f6:	b08f      	sub	sp, #60	; 0x3c
 80018f8:	af00      	add	r7, sp, #0
 80018fa:	2314      	movs	r3, #20
 80018fc:	18fb      	adds	r3, r7, r3
 80018fe:	4a2b      	ldr	r2, [pc, #172]	; (80019ac <HAL_RCC_GetSysClockFreq+0xb8>)
 8001900:	ca13      	ldmia	r2!, {r0, r1, r4}
 8001902:	c313      	stmia	r3!, {r0, r1, r4}
 8001904:	6812      	ldr	r2, [r2, #0]
 8001906:	601a      	str	r2, [r3, #0]
 8001908:	1d3b      	adds	r3, r7, #4
 800190a:	4a29      	ldr	r2, [pc, #164]	; (80019b0 <HAL_RCC_GetSysClockFreq+0xbc>)
 800190c:	ca13      	ldmia	r2!, {r0, r1, r4}
 800190e:	c313      	stmia	r3!, {r0, r1, r4}
 8001910:	6812      	ldr	r2, [r2, #0]
 8001912:	601a      	str	r2, [r3, #0]
 8001914:	2300      	movs	r3, #0
 8001916:	62fb      	str	r3, [r7, #44]	; 0x2c
 8001918:	2300      	movs	r3, #0
 800191a:	62bb      	str	r3, [r7, #40]	; 0x28
 800191c:	2300      	movs	r3, #0
 800191e:	637b      	str	r3, [r7, #52]	; 0x34
 8001920:	2300      	movs	r3, #0
 8001922:	627b      	str	r3, [r7, #36]	; 0x24
 8001924:	2300      	movs	r3, #0
 8001926:	633b      	str	r3, [r7, #48]	; 0x30
 8001928:	4b22      	ldr	r3, [pc, #136]	; (80019b4 <HAL_RCC_GetSysClockFreq+0xc0>)
 800192a:	685b      	ldr	r3, [r3, #4]
 800192c:	62fb      	str	r3, [r7, #44]	; 0x2c
 800192e:	6afb      	ldr	r3, [r7, #44]	; 0x2c
 8001930:	220c      	movs	r2, #12
 8001932:	4013      	ands	r3, r2
 8001934:	2b04      	cmp	r3, #4
 8001936:	d002      	beq.n	800193e <HAL_RCC_GetSysClockFreq+0x4a>
 8001938:	2b08      	cmp	r3, #8
 800193a:	d003      	beq.n	8001944 <HAL_RCC_GetSysClockFreq+0x50>
 800193c:	e02d      	b.n	800199a <HAL_RCC_GetSysClockFreq+0xa6>
 800193e:	4b1e      	ldr	r3, [pc, #120]	; (80019b8 <HAL_RCC_GetSysClockFreq+0xc4>)
 8001940:	633b      	str	r3, [r7, #48]	; 0x30
 8001942:	e02d      	b.n	80019a0 <HAL_RCC_GetSysClockFreq+0xac>
 8001944:	6afb      	ldr	r3, [r7, #44]	; 0x2c
 8001946:	0c9b      	lsrs	r3, r3, #18
 8001948:	220f      	movs	r2, #15
 800194a:	4013      	ands	r3, r2
 800194c:	2214      	movs	r2, #20
 800194e:	18ba      	adds	r2, r7, r2
 8001950:	5cd3      	ldrb	r3, [r2, r3]
 8001952:	627b      	str	r3, [r7, #36]	; 0x24
 8001954:	4b17      	ldr	r3, [pc, #92]	; (80019b4 <HAL_RCC_GetSysClockFreq+0xc0>)
 8001956:	6adb      	ldr	r3, [r3, #44]	; 0x2c
 8001958:	220f      	movs	r2, #15
 800195a:	4013      	ands	r3, r2
 800195c:	1d3a      	adds	r2, r7, #4
 800195e:	5cd3      	ldrb	r3, [r2, r3]
 8001960:	62bb      	str	r3, [r7, #40]	; 0x28
 8001962:	6afa      	ldr	r2, [r7, #44]	; 0x2c
 8001964:	2380      	movs	r3, #128	; 0x80
 8001966:	025b      	lsls	r3, r3, #9
 8001968:	4013      	ands	r3, r2
 800196a:	d009      	beq.n	8001980 <HAL_RCC_GetSysClockFreq+0x8c>
 800196c:	6ab9      	ldr	r1, [r7, #40]	; 0x28
 800196e:	4812      	ldr	r0, [pc, #72]	; (80019b8 <HAL_RCC_GetSysClockFreq+0xc4>)
 8001970:	f7fe fbca 	bl	8000108 <__udivsi3>
 8001974:	0003      	movs	r3, r0
 8001976:	001a      	movs	r2, r3
 8001978:	6a7b      	ldr	r3, [r7, #36]	; 0x24
 800197a:	4353      	muls	r3, r2
 800197c:	637b      	str	r3, [r7, #52]	; 0x34
 800197e:	e009      	b.n	8001994 <HAL_RCC_GetSysClockFreq+0xa0>
 8001980:	6a79      	ldr	r1, [r7, #36]	; 0x24
 8001982:	000a      	movs	r2, r1
 8001984:	0152      	lsls	r2, r2, #5
 8001986:	1a52      	subs	r2, r2, r1
 8001988:	0193      	lsls	r3, r2, #6
 800198a:	1a9b      	subs	r3, r3, r2
 800198c:	00db      	lsls	r3, r3, #3
 800198e:	185b      	adds	r3, r3, r1
 8001990:	021b      	lsls	r3, r3, #8
 8001992:	637b      	str	r3, [r7, #52]	; 0x34
 8001994:	6b7b      	ldr	r3, [r7, #52]	; 0x34
 8001996:	633b      	str	r3, [r7, #48]	; 0x30
 8001998:	e002      	b.n	80019a0 <HAL_RCC_GetSysClockFreq+0xac>
 800199a:	4b07      	ldr	r3, [pc, #28]	; (80019b8 <HAL_RCC_GetSysClockFreq+0xc4>)
 800199c:	633b      	str	r3, [r7, #48]	; 0x30
 800199e:	46c0      	nop			; (mov r8, r8)
 80019a0:	6b3b      	ldr	r3, [r7, #48]	; 0x30
 80019a2:	0018      	movs	r0, r3
 80019a4:	46bd      	mov	sp, r7
 80019a6:	b00f      	add	sp, #60	; 0x3c
 80019a8:	bd90      	pop	{r4, r7, pc}
 80019aa:	46c0      	nop			; (mov r8, r8)
 80019ac:	08001ccc 	.word	0x08001ccc
 80019b0:	08001cdc 	.word	0x08001cdc
 80019b4:	40021000 	.word	0x40021000
 80019b8:	007a1200 	.word	0x007a1200

080019bc <_ZdlPvj>:
 80019bc:	b510      	push	{r4, lr}
 80019be:	f000 f819 	bl	80019f4 <_ZdlPv>
 80019c2:	bd10      	pop	{r4, pc}

080019c4 <_Znwj>:
 80019c4:	b510      	push	{r4, lr}
 80019c6:	1e04      	subs	r4, r0, #0
 80019c8:	d100      	bne.n	80019cc <_Znwj+0x8>
 80019ca:	3401      	adds	r4, #1
 80019cc:	0020      	movs	r0, r4
 80019ce:	f000 f847 	bl	8001a60 <malloc>
 80019d2:	2800      	cmp	r0, #0
 80019d4:	d107      	bne.n	80019e6 <_Znwj+0x22>
 80019d6:	f000 f807 	bl	80019e8 <_ZSt15get_new_handlerv>
 80019da:	2800      	cmp	r0, #0
 80019dc:	d101      	bne.n	80019e2 <_Znwj+0x1e>
 80019de:	f000 f80d 	bl	80019fc <abort>
 80019e2:	4780      	blx	r0
 80019e4:	e7f2      	b.n	80019cc <_Znwj+0x8>
 80019e6:	bd10      	pop	{r4, pc}

080019e8 <_ZSt15get_new_handlerv>:
 80019e8:	4b01      	ldr	r3, [pc, #4]	; (80019f0 <_ZSt15get_new_handlerv+0x8>)
 80019ea:	6818      	ldr	r0, [r3, #0]
 80019ec:	4770      	bx	lr
 80019ee:	46c0      	nop			; (mov r8, r8)
 80019f0:	20000090 	.word	0x20000090

080019f4 <_ZdlPv>:
 80019f4:	b510      	push	{r4, lr}
 80019f6:	f000 f83d 	bl	8001a74 <free>
 80019fa:	bd10      	pop	{r4, pc}

080019fc <abort>:
 80019fc:	b510      	push	{r4, lr}
 80019fe:	2006      	movs	r0, #6
 8001a00:	f000 f92e 	bl	8001c60 <raise>
 8001a04:	2001      	movs	r0, #1
 8001a06:	f7ff f83e 	bl	8000a86 <_exit>
	...

08001a0c <__errno>:
 8001a0c:	4b01      	ldr	r3, [pc, #4]	; (8001a14 <__errno+0x8>)
 8001a0e:	6818      	ldr	r0, [r3, #0]
 8001a10:	4770      	bx	lr
 8001a12:	46c0      	nop			; (mov r8, r8)
 8001a14:	2000000c 	.word	0x2000000c

08001a18 <__libc_init_array>:
 8001a18:	b570      	push	{r4, r5, r6, lr}
 8001a1a:	2600      	movs	r6, #0
 8001a1c:	4d0c      	ldr	r5, [pc, #48]	; (8001a50 <__libc_init_array+0x38>)
 8001a1e:	4c0d      	ldr	r4, [pc, #52]	; (8001a54 <__libc_init_array+0x3c>)
 8001a20:	1b64      	subs	r4, r4, r5
 8001a22:	10a4      	asrs	r4, r4, #2
 8001a24:	42a6      	cmp	r6, r4
 8001a26:	d109      	bne.n	8001a3c <__libc_init_array+0x24>
 8001a28:	2600      	movs	r6, #0
 8001a2a:	f000 f93b 	bl	8001ca4 <_init>
 8001a2e:	4d0a      	ldr	r5, [pc, #40]	; (8001a58 <__libc_init_array+0x40>)
 8001a30:	4c0a      	ldr	r4, [pc, #40]	; (8001a5c <__libc_init_array+0x44>)
 8001a32:	1b64      	subs	r4, r4, r5
 8001a34:	10a4      	asrs	r4, r4, #2
 8001a36:	42a6      	cmp	r6, r4
 8001a38:	d105      	bne.n	8001a46 <__libc_init_array+0x2e>
 8001a3a:	bd70      	pop	{r4, r5, r6, pc}
 8001a3c:	00b3      	lsls	r3, r6, #2
 8001a3e:	58eb      	ldr	r3, [r5, r3]
 8001a40:	4798      	blx	r3
 8001a42:	3601      	adds	r6, #1
 8001a44:	e7ee      	b.n	8001a24 <__libc_init_array+0xc>
 8001a46:	00b3      	lsls	r3, r6, #2
 8001a48:	58eb      	ldr	r3, [r5, r3]
 8001a4a:	4798      	blx	r3
 8001a4c:	3601      	adds	r6, #1
 8001a4e:	e7f2      	b.n	8001a36 <__libc_init_array+0x1e>
 8001a50:	08001d5c 	.word	0x08001d5c
 8001a54:	08001d5c 	.word	0x08001d5c
 8001a58:	08001d5c 	.word	0x08001d5c
 8001a5c:	08001d60 	.word	0x08001d60

08001a60 <malloc>:
 8001a60:	b510      	push	{r4, lr}
 8001a62:	4b03      	ldr	r3, [pc, #12]	; (8001a70 <malloc+0x10>)
 8001a64:	0001      	movs	r1, r0
 8001a66:	6818      	ldr	r0, [r3, #0]
 8001a68:	f000 f860 	bl	8001b2c <_malloc_r>
 8001a6c:	bd10      	pop	{r4, pc}
 8001a6e:	46c0      	nop			; (mov r8, r8)
 8001a70:	2000000c 	.word	0x2000000c

08001a74 <free>:
 8001a74:	b510      	push	{r4, lr}
 8001a76:	4b03      	ldr	r3, [pc, #12]	; (8001a84 <free+0x10>)
 8001a78:	0001      	movs	r1, r0
 8001a7a:	6818      	ldr	r0, [r3, #0]
 8001a7c:	f000 f80c 	bl	8001a98 <_free_r>
 8001a80:	bd10      	pop	{r4, pc}
 8001a82:	46c0      	nop			; (mov r8, r8)
 8001a84:	2000000c 	.word	0x2000000c

08001a88 <memset>:
 8001a88:	0003      	movs	r3, r0
 8001a8a:	1812      	adds	r2, r2, r0
 8001a8c:	4293      	cmp	r3, r2
 8001a8e:	d100      	bne.n	8001a92 <memset+0xa>
 8001a90:	4770      	bx	lr
 8001a92:	7019      	strb	r1, [r3, #0]
 8001a94:	3301      	adds	r3, #1
 8001a96:	e7f9      	b.n	8001a8c <memset+0x4>

08001a98 <_free_r>:
 8001a98:	b570      	push	{r4, r5, r6, lr}
 8001a9a:	0005      	movs	r5, r0
 8001a9c:	2900      	cmp	r1, #0
 8001a9e:	d010      	beq.n	8001ac2 <_free_r+0x2a>
 8001aa0:	1f0c      	subs	r4, r1, #4
 8001aa2:	6823      	ldr	r3, [r4, #0]
 8001aa4:	2b00      	cmp	r3, #0
 8001aa6:	da00      	bge.n	8001aaa <_free_r+0x12>
 8001aa8:	18e4      	adds	r4, r4, r3
 8001aaa:	0028      	movs	r0, r5
 8001aac:	f000 f8f8 	bl	8001ca0 <__malloc_lock>
 8001ab0:	4a1d      	ldr	r2, [pc, #116]	; (8001b28 <_free_r+0x90>)
 8001ab2:	6813      	ldr	r3, [r2, #0]
 8001ab4:	2b00      	cmp	r3, #0
 8001ab6:	d105      	bne.n	8001ac4 <_free_r+0x2c>
 8001ab8:	6063      	str	r3, [r4, #4]
 8001aba:	6014      	str	r4, [r2, #0]
 8001abc:	0028      	movs	r0, r5
 8001abe:	f000 f8f0 	bl	8001ca2 <__malloc_unlock>
 8001ac2:	bd70      	pop	{r4, r5, r6, pc}
 8001ac4:	42a3      	cmp	r3, r4
 8001ac6:	d909      	bls.n	8001adc <_free_r+0x44>
 8001ac8:	6821      	ldr	r1, [r4, #0]
 8001aca:	1860      	adds	r0, r4, r1
 8001acc:	4283      	cmp	r3, r0
 8001ace:	d1f3      	bne.n	8001ab8 <_free_r+0x20>
 8001ad0:	6818      	ldr	r0, [r3, #0]
 8001ad2:	685b      	ldr	r3, [r3, #4]
 8001ad4:	1841      	adds	r1, r0, r1
 8001ad6:	6021      	str	r1, [r4, #0]
 8001ad8:	e7ee      	b.n	8001ab8 <_free_r+0x20>
 8001ada:	0013      	movs	r3, r2
 8001adc:	685a      	ldr	r2, [r3, #4]
 8001ade:	2a00      	cmp	r2, #0
 8001ae0:	d001      	beq.n	8001ae6 <_free_r+0x4e>
 8001ae2:	42a2      	cmp	r2, r4
 8001ae4:	d9f9      	bls.n	8001ada <_free_r+0x42>
 8001ae6:	6819      	ldr	r1, [r3, #0]
 8001ae8:	1858      	adds	r0, r3, r1
 8001aea:	42a0      	cmp	r0, r4
 8001aec:	d10b      	bne.n	8001b06 <_free_r+0x6e>
 8001aee:	6820      	ldr	r0, [r4, #0]
 8001af0:	1809      	adds	r1, r1, r0
 8001af2:	1858      	adds	r0, r3, r1
 8001af4:	6019      	str	r1, [r3, #0]
 8001af6:	4282      	cmp	r2, r0
 8001af8:	d1e0      	bne.n	8001abc <_free_r+0x24>
 8001afa:	6810      	ldr	r0, [r2, #0]
 8001afc:	6852      	ldr	r2, [r2, #4]
 8001afe:	1841      	adds	r1, r0, r1
 8001b00:	6019      	str	r1, [r3, #0]
 8001b02:	605a      	str	r2, [r3, #4]
 8001b04:	e7da      	b.n	8001abc <_free_r+0x24>
 8001b06:	42a0      	cmp	r0, r4
 8001b08:	d902      	bls.n	8001b10 <_free_r+0x78>
 8001b0a:	230c      	movs	r3, #12
 8001b0c:	602b      	str	r3, [r5, #0]
 8001b0e:	e7d5      	b.n	8001abc <_free_r+0x24>
 8001b10:	6821      	ldr	r1, [r4, #0]
 8001b12:	1860      	adds	r0, r4, r1
 8001b14:	4282      	cmp	r2, r0
 8001b16:	d103      	bne.n	8001b20 <_free_r+0x88>
 8001b18:	6810      	ldr	r0, [r2, #0]
 8001b1a:	6852      	ldr	r2, [r2, #4]
 8001b1c:	1841      	adds	r1, r0, r1
 8001b1e:	6021      	str	r1, [r4, #0]
 8001b20:	6062      	str	r2, [r4, #4]
 8001b22:	605c      	str	r4, [r3, #4]
 8001b24:	e7ca      	b.n	8001abc <_free_r+0x24>
 8001b26:	46c0      	nop			; (mov r8, r8)
 8001b28:	20000094 	.word	0x20000094

08001b2c <_malloc_r>:
 8001b2c:	2303      	movs	r3, #3
 8001b2e:	b570      	push	{r4, r5, r6, lr}
 8001b30:	1ccd      	adds	r5, r1, #3
 8001b32:	439d      	bics	r5, r3
 8001b34:	3508      	adds	r5, #8
 8001b36:	0006      	movs	r6, r0
 8001b38:	2d0c      	cmp	r5, #12
 8001b3a:	d21e      	bcs.n	8001b7a <_malloc_r+0x4e>
 8001b3c:	250c      	movs	r5, #12
 8001b3e:	42a9      	cmp	r1, r5
 8001b40:	d81d      	bhi.n	8001b7e <_malloc_r+0x52>
 8001b42:	0030      	movs	r0, r6
 8001b44:	f000 f8ac 	bl	8001ca0 <__malloc_lock>
 8001b48:	4a25      	ldr	r2, [pc, #148]	; (8001be0 <_malloc_r+0xb4>)
 8001b4a:	6814      	ldr	r4, [r2, #0]
 8001b4c:	0021      	movs	r1, r4
 8001b4e:	2900      	cmp	r1, #0
 8001b50:	d119      	bne.n	8001b86 <_malloc_r+0x5a>
 8001b52:	4c24      	ldr	r4, [pc, #144]	; (8001be4 <_malloc_r+0xb8>)
 8001b54:	6823      	ldr	r3, [r4, #0]
 8001b56:	2b00      	cmp	r3, #0
 8001b58:	d103      	bne.n	8001b62 <_malloc_r+0x36>
 8001b5a:	0030      	movs	r0, r6
 8001b5c:	f000 f844 	bl	8001be8 <_sbrk_r>
 8001b60:	6020      	str	r0, [r4, #0]
 8001b62:	0029      	movs	r1, r5
 8001b64:	0030      	movs	r0, r6
 8001b66:	f000 f83f 	bl	8001be8 <_sbrk_r>
 8001b6a:	1c43      	adds	r3, r0, #1
 8001b6c:	d12b      	bne.n	8001bc6 <_malloc_r+0x9a>
 8001b6e:	230c      	movs	r3, #12
 8001b70:	0030      	movs	r0, r6
 8001b72:	6033      	str	r3, [r6, #0]
 8001b74:	f000 f895 	bl	8001ca2 <__malloc_unlock>
 8001b78:	e003      	b.n	8001b82 <_malloc_r+0x56>
 8001b7a:	2d00      	cmp	r5, #0
 8001b7c:	dadf      	bge.n	8001b3e <_malloc_r+0x12>
 8001b7e:	230c      	movs	r3, #12
 8001b80:	6033      	str	r3, [r6, #0]
 8001b82:	2000      	movs	r0, #0
 8001b84:	bd70      	pop	{r4, r5, r6, pc}
 8001b86:	680b      	ldr	r3, [r1, #0]
 8001b88:	1b5b      	subs	r3, r3, r5
 8001b8a:	d419      	bmi.n	8001bc0 <_malloc_r+0x94>
 8001b8c:	2b0b      	cmp	r3, #11
 8001b8e:	d903      	bls.n	8001b98 <_malloc_r+0x6c>
 8001b90:	600b      	str	r3, [r1, #0]
 8001b92:	18cc      	adds	r4, r1, r3
 8001b94:	6025      	str	r5, [r4, #0]
 8001b96:	e003      	b.n	8001ba0 <_malloc_r+0x74>
 8001b98:	684b      	ldr	r3, [r1, #4]
 8001b9a:	428c      	cmp	r4, r1
 8001b9c:	d10d      	bne.n	8001bba <_malloc_r+0x8e>
 8001b9e:	6013      	str	r3, [r2, #0]
 8001ba0:	0030      	movs	r0, r6
 8001ba2:	f000 f87e 	bl	8001ca2 <__malloc_unlock>
 8001ba6:	0020      	movs	r0, r4
 8001ba8:	2207      	movs	r2, #7
 8001baa:	300b      	adds	r0, #11
 8001bac:	1d23      	adds	r3, r4, #4
 8001bae:	4390      	bics	r0, r2
 8001bb0:	1ac3      	subs	r3, r0, r3
 8001bb2:	d0e7      	beq.n	8001b84 <_malloc_r+0x58>
 8001bb4:	425a      	negs	r2, r3
 8001bb6:	50e2      	str	r2, [r4, r3]
 8001bb8:	e7e4      	b.n	8001b84 <_malloc_r+0x58>
 8001bba:	6063      	str	r3, [r4, #4]
 8001bbc:	000c      	movs	r4, r1
 8001bbe:	e7ef      	b.n	8001ba0 <_malloc_r+0x74>
 8001bc0:	000c      	movs	r4, r1
 8001bc2:	6849      	ldr	r1, [r1, #4]
 8001bc4:	e7c3      	b.n	8001b4e <_malloc_r+0x22>
 8001bc6:	2303      	movs	r3, #3
 8001bc8:	1cc4      	adds	r4, r0, #3
 8001bca:	439c      	bics	r4, r3
 8001bcc:	42a0      	cmp	r0, r4
 8001bce:	d0e1      	beq.n	8001b94 <_malloc_r+0x68>
 8001bd0:	1a21      	subs	r1, r4, r0
 8001bd2:	0030      	movs	r0, r6
 8001bd4:	f000 f808 	bl	8001be8 <_sbrk_r>
 8001bd8:	1c43      	adds	r3, r0, #1
 8001bda:	d1db      	bne.n	8001b94 <_malloc_r+0x68>
 8001bdc:	e7c7      	b.n	8001b6e <_malloc_r+0x42>
 8001bde:	46c0      	nop			; (mov r8, r8)
 8001be0:	20000094 	.word	0x20000094
 8001be4:	20000098 	.word	0x20000098

08001be8 <_sbrk_r>:
 8001be8:	2300      	movs	r3, #0
 8001bea:	b570      	push	{r4, r5, r6, lr}
 8001bec:	4c06      	ldr	r4, [pc, #24]	; (8001c08 <_sbrk_r+0x20>)
 8001bee:	0005      	movs	r5, r0
 8001bf0:	0008      	movs	r0, r1
 8001bf2:	6023      	str	r3, [r4, #0]
 8001bf4:	f7fe ff54 	bl	8000aa0 <_sbrk>
 8001bf8:	1c43      	adds	r3, r0, #1
 8001bfa:	d103      	bne.n	8001c04 <_sbrk_r+0x1c>
 8001bfc:	6823      	ldr	r3, [r4, #0]
 8001bfe:	2b00      	cmp	r3, #0
 8001c00:	d000      	beq.n	8001c04 <_sbrk_r+0x1c>
 8001c02:	602b      	str	r3, [r5, #0]
 8001c04:	bd70      	pop	{r4, r5, r6, pc}
 8001c06:	46c0      	nop			; (mov r8, r8)
 8001c08:	200000a0 	.word	0x200000a0

08001c0c <_raise_r>:
 8001c0c:	b570      	push	{r4, r5, r6, lr}
 8001c0e:	0004      	movs	r4, r0
 8001c10:	000d      	movs	r5, r1
 8001c12:	291f      	cmp	r1, #31
 8001c14:	d904      	bls.n	8001c20 <_raise_r+0x14>
 8001c16:	2316      	movs	r3, #22
 8001c18:	6003      	str	r3, [r0, #0]
 8001c1a:	2001      	movs	r0, #1
 8001c1c:	4240      	negs	r0, r0
 8001c1e:	bd70      	pop	{r4, r5, r6, pc}
 8001c20:	6c43      	ldr	r3, [r0, #68]	; 0x44
 8001c22:	2b00      	cmp	r3, #0
 8001c24:	d004      	beq.n	8001c30 <_raise_r+0x24>
 8001c26:	008a      	lsls	r2, r1, #2
 8001c28:	189b      	adds	r3, r3, r2
 8001c2a:	681a      	ldr	r2, [r3, #0]
 8001c2c:	2a00      	cmp	r2, #0
 8001c2e:	d108      	bne.n	8001c42 <_raise_r+0x36>
 8001c30:	0020      	movs	r0, r4
 8001c32:	f000 f831 	bl	8001c98 <_getpid_r>
 8001c36:	002a      	movs	r2, r5
 8001c38:	0001      	movs	r1, r0
 8001c3a:	0020      	movs	r0, r4
 8001c3c:	f000 f81a 	bl	8001c74 <_kill_r>
 8001c40:	e7ed      	b.n	8001c1e <_raise_r+0x12>
 8001c42:	2000      	movs	r0, #0
 8001c44:	2a01      	cmp	r2, #1
 8001c46:	d0ea      	beq.n	8001c1e <_raise_r+0x12>
 8001c48:	1c51      	adds	r1, r2, #1
 8001c4a:	d103      	bne.n	8001c54 <_raise_r+0x48>
 8001c4c:	2316      	movs	r3, #22
 8001c4e:	3001      	adds	r0, #1
 8001c50:	6023      	str	r3, [r4, #0]
 8001c52:	e7e4      	b.n	8001c1e <_raise_r+0x12>
 8001c54:	2400      	movs	r4, #0
 8001c56:	0028      	movs	r0, r5
 8001c58:	601c      	str	r4, [r3, #0]
 8001c5a:	4790      	blx	r2
 8001c5c:	0020      	movs	r0, r4
 8001c5e:	e7de      	b.n	8001c1e <_raise_r+0x12>

08001c60 <raise>:
 8001c60:	b510      	push	{r4, lr}
 8001c62:	4b03      	ldr	r3, [pc, #12]	; (8001c70 <raise+0x10>)
 8001c64:	0001      	movs	r1, r0
 8001c66:	6818      	ldr	r0, [r3, #0]
 8001c68:	f7ff ffd0 	bl	8001c0c <_raise_r>
 8001c6c:	bd10      	pop	{r4, pc}
 8001c6e:	46c0      	nop			; (mov r8, r8)
 8001c70:	2000000c 	.word	0x2000000c

08001c74 <_kill_r>:
 8001c74:	2300      	movs	r3, #0
 8001c76:	b570      	push	{r4, r5, r6, lr}
 8001c78:	4c06      	ldr	r4, [pc, #24]	; (8001c94 <_kill_r+0x20>)
 8001c7a:	0005      	movs	r5, r0
 8001c7c:	0008      	movs	r0, r1
 8001c7e:	0011      	movs	r1, r2
 8001c80:	6023      	str	r3, [r4, #0]
 8001c82:	f7fe fef0 	bl	8000a66 <_kill>
 8001c86:	1c43      	adds	r3, r0, #1
 8001c88:	d103      	bne.n	8001c92 <_kill_r+0x1e>
 8001c8a:	6823      	ldr	r3, [r4, #0]
 8001c8c:	2b00      	cmp	r3, #0
 8001c8e:	d000      	beq.n	8001c92 <_kill_r+0x1e>
 8001c90:	602b      	str	r3, [r5, #0]
 8001c92:	bd70      	pop	{r4, r5, r6, pc}
 8001c94:	200000a0 	.word	0x200000a0

08001c98 <_getpid_r>:
 8001c98:	b510      	push	{r4, lr}
 8001c9a:	f7fe fede 	bl	8000a5a <_getpid>
 8001c9e:	bd10      	pop	{r4, pc}

08001ca0 <__malloc_lock>:
 8001ca0:	4770      	bx	lr

08001ca2 <__malloc_unlock>:
 8001ca2:	4770      	bx	lr

08001ca4 <_init>:
 8001ca4:	b5f8      	push	{r3, r4, r5, r6, r7, lr}
 8001ca6:	46c0      	nop			; (mov r8, r8)
 8001ca8:	bcf8      	pop	{r3, r4, r5, r6, r7}
 8001caa:	bc08      	pop	{r3}
 8001cac:	469e      	mov	lr, r3
 8001cae:	4770      	bx	lr

08001cb0 <_fini>:
 8001cb0:	b5f8      	push	{r3, r4, r5, r6, r7, lr}
 8001cb2:	46c0      	nop			; (mov r8, r8)
 8001cb4:	bcf8      	pop	{r3, r4, r5, r6, r7}
 8001cb6:	bc08      	pop	{r3}
 8001cb8:	469e      	mov	lr, r3
 8001cba:	4770      	bx	lr
